
MOD_socket_server.elf:     file format elf32-littlenios2
MOD_socket_server.elf
architecture: nios2:r1, flags 0x00000112:
EXEC_P, HAS_SYMS, D_PAGED
start address 0x08000338

Program Header:
    LOAD off    0x00000000 vaddr 0x08000000 paddr 0x08000000 align 2**12
         filesz 0x0005681c memsz 0x0005f8b0 flags rwx
    LOAD off    0x00057000 vaddr 0x14430000 paddr 0x14430000 align 2**12
         filesz 0x00000000 memsz 0x00000000 flags r-x

Sections:
Idx Name          Size      VMA       LMA       File off  Algn
  0 .entry        00000000  14430000  14430000  00057000  2**5
                  CONTENTS, ALLOC, LOAD, READONLY, CODE
  1 .exceptions   00000218  08000120  08000120  00000120  2**2
                  CONTENTS, ALLOC, LOAD, READONLY, CODE
  2 .text         0004de90  08000338  08000338  00000338  2**2
                  CONTENTS, ALLOC, LOAD, READONLY, CODE
  3 .rodata       000062f0  0804e1c8  0804e1c8  0004e1c8  2**2
                  CONTENTS, ALLOC, LOAD, READONLY, DATA
  4 .rwdata       0000235c  080544c0  080544c0  000544c0  2**4
                  CONTENTS, ALLOC, LOAD, DATA, SMALL_DATA
  5 .bss          00009094  0805681c  0805681c  0005681c  2**2
                  ALLOC, SMALL_DATA
  6 .mem_if_ddr3_emif_0 00000000  0805f8b0  0805f8b0  00057000  2**0
                  CONTENTS
  7 .ext_flash_avl_mem 00000000  14430020  14430020  00057000  2**0
                  CONTENTS
  8 .descriptor_memory 00000000  18000000  18000000  00057000  2**0
                  CONTENTS
  9 .onchip_ram   00000000  18002800  18002800  00057000  2**0
                  CONTENTS
 10 .comment      0000002c  00000000  00000000  00057000  2**0
                  CONTENTS, READONLY
 11 .debug_aranges 00001fd0  00000000  00000000  00057030  2**3
                  CONTENTS, READONLY, DEBUGGING
 12 .debug_info   0011fccf  00000000  00000000  00059000  2**0
                  CONTENTS, READONLY, DEBUGGING
 13 .debug_abbrev 0002475b  00000000  00000000  00178ccf  2**0
                  CONTENTS, READONLY, DEBUGGING
 14 .debug_line   00043bab  00000000  00000000  0019d42a  2**0
                  CONTENTS, READONLY, DEBUGGING
 15 .debug_frame  00009828  00000000  00000000  001e0fd8  2**2
                  CONTENTS, READONLY, DEBUGGING
 16 .debug_str    0000db53  00000000  00000000  001ea800  2**0
                  CONTENTS, READONLY, DEBUGGING
 17 .debug_loc    000262d0  00000000  00000000  001f8353  2**0
                  CONTENTS, READONLY, DEBUGGING
 18 .debug_alt_sim_info 00000050  00000000  00000000  0021e624  2**2
                  CONTENTS, READONLY, DEBUGGING
 19 .debug_ranges 00002478  00000000  00000000  0021e678  2**3
                  CONTENTS, READONLY, DEBUGGING
 20 .thread_model 00000006  00000000  00000000  0022c6d2  2**0
                  CONTENTS, READONLY
 21 .cpu          00000003  00000000  00000000  0022c6d8  2**0
                  CONTENTS, READONLY
 22 .qsys         00000001  00000000  00000000  0022c6db  2**0
                  CONTENTS, READONLY
 23 .simulation_enabled 00000001  00000000  00000000  0022c6dc  2**0
                  CONTENTS, READONLY
 24 .sysid_hash   00000004  00000000  00000000  0022c6dd  2**0
                  CONTENTS, READONLY
 25 .sysid_base   00000004  00000000  00000000  0022c6e1  2**0
                  CONTENTS, READONLY
 26 .sysid_time   00000004  00000000  00000000  0022c6e5  2**0
                  CONTENTS, READONLY
 27 .stderr_dev   00000009  00000000  00000000  0022c6e9  2**0
                  CONTENTS, READONLY
 28 .stdin_dev    00000009  00000000  00000000  0022c6f2  2**0
                  CONTENTS, READONLY
 29 .stdout_dev   00000009  00000000  00000000  0022c6fb  2**0
                  CONTENTS, READONLY
 30 .sopc_system_name 00000005  00000000  00000000  0022c704  2**0
                  CONTENTS, READONLY
 31 .quartus_project_dir 00000039  00000000  00000000  0022c709  2**0
                  CONTENTS, READONLY
 32 .jdi          000047e1  00000000  00000000  0022c742  2**0
                  CONTENTS, READONLY
 33 .sopcinfo     0012f331  00000000  00000000  00230f23  2**0
                  CONTENTS, READONLY
SYMBOL TABLE:
14430000 l    d  .entry	00000000 .entry
08000120 l    d  .exceptions	00000000 .exceptions
08000338 l    d  .text	00000000 .text
0804e1c8 l    d  .rodata	00000000 .rodata
080544c0 l    d  .rwdata	00000000 .rwdata
0805681c l    d  .bss	00000000 .bss
0805f8b0 l    d  .mem_if_ddr3_emif_0	00000000 .mem_if_ddr3_emif_0
14430020 l    d  .ext_flash_avl_mem	00000000 .ext_flash_avl_mem
18000000 l    d  .descriptor_memory	00000000 .descriptor_memory
18002800 l    d  .onchip_ram	00000000 .onchip_ram
00000000 l    d  .comment	00000000 .comment
00000000 l    d  .debug_aranges	00000000 .debug_aranges
00000000 l    d  .debug_info	00000000 .debug_info
00000000 l    d  .debug_abbrev	00000000 .debug_abbrev
00000000 l    d  .debug_line	00000000 .debug_line
00000000 l    d  .debug_frame	00000000 .debug_frame
00000000 l    d  .debug_str	00000000 .debug_str
00000000 l    d  .debug_loc	00000000 .debug_loc
00000000 l    d  .debug_alt_sim_info	00000000 .debug_alt_sim_info
00000000 l    d  .debug_ranges	00000000 .debug_ranges
00000000 l    df *ABS*	00000000 ../MOD_socket_server_bsp//obj/HAL/src/crt0.o
0800037c l       .text	00000000 alt_after_alt_main
00000000 l    df *ABS*	00000000 alt_irq_handler.c
00000000 l    df *ABS*	00000000 alt_instruction_exception_entry.c
00000000 l    df *ABS*	00000000 DELHProtocol.c
08056a30 l     O .bss	0000039c Connections
0805681c l     O .bss	00000004 LEDCommand
00000000 l    df *ABS*	00000000 alt_error_handler.c
00000000 l    df *ABS*	00000000 iniche_init.c
00000000 l    df *ABS*	00000000 led.c
00000000 l    df *ABS*	00000000 network_utilities.c
00000000 l    df *ABS*	00000000 simple_socket_server.c
00000000 l    df *ABS*	00000000 tse_my_system.c
00000000 l    df *ABS*	00000000 ctype_.c
00000000 l    df *ABS*	00000000 fprintf.c
00000000 l    df *ABS*	00000000 fwrite.c
00000000 l    df *ABS*	00000000 getchar.c
00000000 l    df *ABS*	00000000 impure.c
08054608 l     O .rwdata	00000424 impure_data
00000000 l    df *ABS*	00000000 memcmp.c
00000000 l    df *ABS*	00000000 memcpy.c
00000000 l    df *ABS*	00000000 memset.c
00000000 l    df *ABS*	00000000 perror.c
00000000 l    df *ABS*	00000000 printf.c
00000000 l    df *ABS*	00000000 putchar.c
00000000 l    df *ABS*	00000000 puts.c
00000000 l    df *ABS*	00000000 strcpy.c
00000000 l    df *ABS*	00000000 strerror.c
00000000 l    df *ABS*	00000000 strlen.c
00000000 l    df *ABS*	00000000 strtok.c
00000000 l    df *ABS*	00000000 strtok_r.c
00000000 l    df *ABS*	00000000 strtoul.c
08003ec8 l     F .text	00000248 _strtoul_l.isra.0
00000000 l    df *ABS*	00000000 u_strerr.c
00000000 l    df *ABS*	00000000 vfprintf.c
0800624c l     F .text	000000c0 __sbprintf
0804fd1c l     O .rodata	00000010 blanks.5176
0804fd0c l     O .rodata	00000010 zeroes.5177
00000000 l    df *ABS*	00000000 writer.c
00000000 l    df *ABS*	00000000 wsetup.c
00000000 l    df *ABS*	00000000 dtoa.c
080064cc l     F .text	000001fc quorem
00000000 l    df *ABS*	00000000 fflush.c
00000000 l    df *ABS*	00000000 fileno.c
00000000 l    df *ABS*	00000000 findfp.c
0800812c l     F .text	00000008 __fp_lock
08008140 l     F .text	00000168 __sinit.part.0
080082a8 l     F .text	00000008 __fp_unlock
00000000 l    df *ABS*	00000000 mallocr.c
00000000 l    df *ABS*	00000000 fvwrite.c
00000000 l    df *ABS*	00000000 fwalk.c
00000000 l    df *ABS*	00000000 getc.c
00000000 l    df *ABS*	00000000 int_errno.c
00000000 l    df *ABS*	00000000 localeconv.c
00000000 l    df *ABS*	00000000 makebuf.c
00000000 l    df *ABS*	00000000 mallocr.c
00000000 l    df *ABS*	00000000 memchr.c
00000000 l    df *ABS*	00000000 memmove.c
00000000 l    df *ABS*	00000000 mprec.c
0804fdc8 l     O .rodata	0000000c p05.3991
00000000 l    df *ABS*	00000000 putc.c
00000000 l    df *ABS*	00000000 mallocr.c
00000000 l    df *ABS*	00000000 rget.c
00000000 l    df *ABS*	00000000 sbrkr.c
00000000 l    df *ABS*	00000000 stdio.c
00000000 l    df *ABS*	00000000 vfprintf.c
0800b530 l     F .text	000000f4 __sprint_r.part.0
0800c95c l     F .text	000000c0 __sbprintf
0804fefc l     O .rodata	00000010 blanks.5153
0804feec l     O .rodata	00000010 zeroes.5154
00000000 l    df *ABS*	00000000 wbuf.c
00000000 l    df *ABS*	00000000 closer.c
00000000 l    df *ABS*	00000000 assert.c
00000000 l    df *ABS*	00000000 mallocr.c
00000000 l    df *ABS*	00000000 fclose.c
00000000 l    df *ABS*	00000000 fiprintf.c
00000000 l    df *ABS*	00000000 fputwc.c
00000000 l    df *ABS*	00000000 fstatr.c
00000000 l    df *ABS*	00000000 isattyr.c
00000000 l    df *ABS*	00000000 locale.c
00000000 l    df *ABS*	00000000 lseekr.c
00000000 l    df *ABS*	00000000 mbtowc_r.c
00000000 l    df *ABS*	00000000 readr.c
00000000 l    df *ABS*	00000000 refill.c
0800d2c8 l     F .text	0000001c lflush
00000000 l    df *ABS*	00000000 strcmp.c
00000000 l    df *ABS*	00000000 vfiprintfr_1.c
00000000 l    df *ABS*	00000000 wcrtomb.c
00000000 l    df *ABS*	00000000 wctomb_r.c
00000000 l    df *ABS*	00000000 abort.c
00000000 l    df *ABS*	00000000 signal.c
0800d6b4 l     F .text	0000004c _init_signal_r.part.0
00000000 l    df *ABS*	00000000 signalr.c
00000000 l    df *ABS*	00000000 libgcc2.c
00000000 l    df *ABS*	00000000 libgcc2.c
00000000 l    df *ABS*	00000000 lib2-divmod.c
00000000 l    df *ABS*	00000000 adddf3.c
00000000 l    df *ABS*	00000000 divdf3.c
00000000 l    df *ABS*	00000000 eqdf2.c
00000000 l    df *ABS*	00000000 gedf2.c
00000000 l    df *ABS*	00000000 ledf2.c
00000000 l    df *ABS*	00000000 muldf3.c
00000000 l    df *ABS*	00000000 subdf3.c
00000000 l    df *ABS*	00000000 unorddf2.c
00000000 l    df *ABS*	00000000 fixdfsi.c
00000000 l    df *ABS*	00000000 floatsidf.c
00000000 l    df *ABS*	00000000 floatunsidf.c
00000000 l    df *ABS*	00000000 libgcc2.c
00000000 l    df *ABS*	00000000 libgcc2.c
00000000 l    df *ABS*	00000000 alt_exit.c
00000000 l    df *ABS*	00000000 alt_fstat.c
08010ccc l     F .text	0000003c alt_get_errno
00000000 l    df *ABS*	00000000 alt_getpid.c
00000000 l    df *ABS*	00000000 alt_isatty.c
08010dd8 l     F .text	0000003c alt_get_errno
00000000 l    df *ABS*	00000000 alt_kill.c
08010eb8 l     F .text	0000003c alt_get_errno
00000000 l    df *ABS*	00000000 alt_lseek.c
08011020 l     F .text	0000003c alt_get_errno
00000000 l    df *ABS*	00000000 alt_main.c
00000000 l    df *ABS*	00000000 alt_sbrk.c
080566dc l     O .rwdata	00000004 heap_end
00000000 l    df *ABS*	00000000 alt_env_lock.c
080566e0 l     O .rwdata	00000004 lockid
08056854 l     O .bss	00000004 locks
00000000 l    df *ABS*	00000000 alt_malloc_lock.c
080566e4 l     O .rwdata	00000004 lockid
0805685c l     O .bss	00000004 locks
00000000 l    df *ABS*	00000000 os_core.c
08012bd8 l     F .text	00000048 OS_InitMisc
08012c20 l     F .text	0000006c OS_InitRdyList
08012d94 l     F .text	000000e4 OS_InitTCBList
08012af8 l     F .text	000000e0 OS_InitEventList
08012c8c l     F .text	00000084 OS_InitTaskIdle
08012d10 l     F .text	00000084 OS_InitTaskStat
08013008 l     F .text	0000006c OS_SchedNew
00000000 l    df *ABS*	00000000 os_dbg.c
00000000 l    df *ABS*	00000000 os_flag.c
08014dcc l     F .text	000000f4 OS_FlagTaskRdy
08014b88 l     F .text	00000164 OS_FlagBlock
00000000 l    df *ABS*	00000000 os_mem.c
00000000 l    df *ABS*	00000000 os_q.c
00000000 l    df *ABS*	00000000 os_sem.c
00000000 l    df *ABS*	00000000 os_task.c
00000000 l    df *ABS*	00000000 os_time.c
00000000 l    df *ABS*	00000000 alt_sys_init.c
08018f2c l     F .text	00000034 alt_dev_reg
08054fa0 l     O .rwdata	0000003c i2c_ckm_c0
08054fdc l     O .rwdata	0000003c i2c_ckm_c1
08055018 l     O .rwdata	0000003c i2c_ckm_id
08055054 l     O .rwdata	0000003c i2c_rxm_ctrl
08055090 l     O .rwdata	0000003c i2c_rxm_id
080550cc l     O .rwdata	0000106c jtag_uart
08056138 l     O .rwdata	000000dc ext_flash
08056220 l     O .rwdata	00000070 msgdma_rx
08056290 l     O .rwdata	00000070 msgdma_tx
00000000 l    df *ABS*	00000000 altera_avalon_i2c.c
08019200 l     F .text	00000110 optional_irq_callback
08019360 l     F .text	000000a0 alt_avalon_i2c_irq
00000000 l    df *ABS*	00000000 altera_avalon_jtag_uart_fd.c
00000000 l    df *ABS*	00000000 altera_avalon_jtag_uart_init.c
0801b108 l     F .text	000002ac altera_avalon_jtag_uart_irq
0801b3b4 l     F .text	0000010c altera_avalon_jtag_uart_timeout
00000000 l    df *ABS*	00000000 altera_avalon_jtag_uart_ioctl.c
00000000 l    df *ABS*	00000000 altera_avalon_jtag_uart_read.c
00000000 l    df *ABS*	00000000 altera_avalon_jtag_uart_write.c
00000000 l    df *ABS*	00000000 altera_avalon_timer_sc.c
0801bbb4 l     F .text	0000007c alt_avalon_timer_sc_irq
00000000 l    df *ABS*	00000000 altera_avalon_tse.c
080568b6 l     O .bss	00000001 tse_system_count.5300
080568b7 l     O .bss	00000001 is_init.5382
00000000 l    df *ABS*	00000000 altera_generic_quad_spi_controller.c
08020bd4 l     F .text	00000034 alt_flash_device_register
0802166c l     F .text	0000008c alt_qspi_poll_for_write_in_progress
080215d0 l     F .text	0000009c alt_qspi_validate_read_write_arguments
00000000 l    df *ABS*	00000000 altera_msgdma.c
080216f8 l     F .text	0000003c alt_get_errno
08021734 l     F .text	00000094 alt_msgdma_write_standard_descriptor
080217c8 l     F .text	0000012c alt_msgdma_write_extended_descriptor
080218f4 l     F .text	00000188 alt_msgdma_irq
08021a7c l     F .text	0000008c alt_msgdma_construct_standard_descriptor
08021b08 l     F .text	00000154 alt_msgdma_construct_extended_descriptor
08021c5c l     F .text	00000344 alt_msgdma_descriptor_async_transfer
08021fa0 l     F .text	00000410 alt_msgdma_descriptor_sync_transfer
08022680 l     F .text	000000a4 alt_msgdma_construct_prefetcher_standard_descriptor
08022724 l     F .text	00000194 alt_msgdma_construct_prefetcher_extended_descriptor
00000000 l    df *ABS*	00000000 ins_tse_mac.c
00000000 l    df *ABS*	00000000 alt_iniche_close.c
00000000 l    df *ABS*	00000000 alt_iniche_dev.c
00000000 l    df *ABS*	00000000 alt_iniche_read.c
00000000 l    df *ABS*	00000000 alt_iniche_write.c
00000000 l    df *ABS*	00000000 ipnet.c
00000000 l    df *ABS*	00000000 ipstart.c
08056df4 l     O .bss	0000003c closers
080568cc l     O .bss	00000004 nclosers
00000000 l    df *ABS*	00000000 igmp_cmn.c
00000000 l    df *ABS*	00000000 bsdsock.c
00000000 l    df *ABS*	00000000 cksum.c
08056780 l     O .rwdata	00000004 cksum_select
00000000 l    df *ABS*	00000000 in_utils.c
08056e30 l     O .bss	00000018 tistring
00000000 l    df *ABS*	00000000 netmain.c
00000000 l    df *ABS*	00000000 tk_crnos.c
00000000 l    df *ABS*	00000000 dhcpclnt.c
0802ad24 l     F .text	000000ac dh_getlong
00000000 l    df *ABS*	00000000 dhcputil.c
00000000 l    df *ABS*	00000000 pktalloc.c
00000000 l    df *ABS*	00000000 q.c
00000000 l    df *ABS*	00000000 udp_open.c
00000000 l    df *ABS*	00000000 asm_cksum.o
0802c74c l       .text	00000000 done
0802c5dc l       .text	00000000 asm1
0802c708 l       .text	00000000 loop0
0802c604 l       .text	00000000 loop
0802c724 l       .text	00000000 fold
00000000 l    df *ABS*	00000000 brdutils.c
08056938 l     O .bss	00000004 kbd_init.4473
08056934 l     O .bss	00000004 cpu_statusreg
00000000 l    df *ABS*	00000000 osportco.c
00000000 l    df *ABS*	00000000 targnios.c
00000000 l    df *ABS*	00000000 nptcp.c
0805696c l     O .bss	00000004 in_tcptick
00000000 l    df *ABS*	00000000 rawsock.c
00000000 l    df *ABS*	00000000 sockcall.c
080309cc l     F .text	0000008c sockargs
0802fcfc l     F .text	000001e0 t_getname
00000000 l    df *ABS*	00000000 socket.c
00000000 l    df *ABS*	00000000 socket2.c
00000000 l    df *ABS*	00000000 soselect.c
00000000 l    df *ABS*	00000000 tcp_in.c
00000000 l    df *ABS*	00000000 tcp_out.c
080384ac l     F .text	000000cc bld_options
00000000 l    df *ABS*	00000000 tcp_subr.c
00000000 l    df *ABS*	00000000 tcp_timr.c
00000000 l    df *ABS*	00000000 tcp_usr.c
00000000 l    df *ABS*	00000000 tcpport.c
00000000 l    df *ABS*	00000000 udpsock.c
00000000 l    df *ABS*	00000000 alt_alarm_start.c
00000000 l    df *ABS*	00000000 alt_busy_sleep.c
00000000 l    df *ABS*	00000000 alt_close.c
0803ad70 l     F .text	0000003c alt_get_errno
00000000 l    df *ABS*	00000000 alt_dcache_flush.c
00000000 l    df *ABS*	00000000 alt_dev.c
0803aef4 l     F .text	0000002c alt_dev_null_write
00000000 l    df *ABS*	00000000 alt_dev_llist_insert.c
0803af20 l     F .text	0000003c alt_get_errno
00000000 l    df *ABS*	00000000 alt_do_ctors.c
00000000 l    df *ABS*	00000000 alt_do_dtors.c
00000000 l    df *ABS*	00000000 alt_errno.c
00000000 l    df *ABS*	00000000 alt_find_dev.c
00000000 l    df *ABS*	00000000 alt_flash_dev.c
00000000 l    df *ABS*	00000000 alt_iic.c
00000000 l    df *ABS*	00000000 alt_iic_isr_register.c
00000000 l    df *ABS*	00000000 alt_io_redirect.c
0803b4b0 l     F .text	000000b0 alt_open_fd
00000000 l    df *ABS*	00000000 alt_irq_vars.c
00000000 l    df *ABS*	00000000 alt_open.c
0803b5dc l     F .text	0000003c alt_get_errno
0803b618 l     F .text	000000b8 alt_file_locked
00000000 l    df *ABS*	00000000 alt_printf.c
00000000 l    df *ABS*	00000000 alt_putchar.c
00000000 l    df *ABS*	00000000 alt_read.c
0803ba80 l     F .text	0000003c alt_get_errno
00000000 l    df *ABS*	00000000 alt_release_fd.c
00000000 l    df *ABS*	00000000 alt_remap_cached.c
00000000 l    df *ABS*	00000000 alt_tick.c
00000000 l    df *ABS*	00000000 alt_uncached_free.c
00000000 l    df *ABS*	00000000 alt_uncached_malloc.c
00000000 l    df *ABS*	00000000 alt_usleep.c
00000000 l    df *ABS*	00000000 alt_write.c
0803bfc0 l     F .text	0000003c alt_get_errno
00000000 l    df *ABS*	00000000 altera_nios2_gen2_irq.c
00000000 l    df *ABS*	00000000 os_cpu_a.o
00000040 l       *ABS*	00000000 OSCtxSw_SWITCH_PC
00000000 l    df *ABS*	00000000 os_cpu_c.c
00000014 l       *ABS*	00000000 OSTCBNext_OFFSET
00000032 l       *ABS*	00000000 OSTCBPrio_OFFSET
00000000 l       *ABS*	00000000 OSTCBStkPtr_OFFSET
00000000 l    df *ABS*	00000000 allports.c
080569a4 l     O .bss	00000004 inside_pktdemux
00000000 l    df *ABS*	00000000 timeouts.c
0803c8d0 l     F .text	0000014c check_interval_timers
080569b0 l     O .bss	00000004 numtimers
00000000 l    df *ABS*	00000000 tk_misc.c
00000000 l    df *ABS*	00000000 alt_iniche_fcntl.c
00000000 l    df *ABS*	00000000 et_arp.c
080569b4 l     O .bss	00000004 arp_timer
080569bc l     O .bss	00000004 cachetime
00000000 l    df *ABS*	00000000 iface.c
00000000 l    df *ABS*	00000000 ip.c
08056804 l     O .rwdata	00000004 uid
00000000 l    df *ABS*	00000000 ip_reasm.c
00000000 l    df *ABS*	00000000 ipdemux.c
00000000 l    df *ABS*	00000000 ipmc.c
00000000 l    df *ABS*	00000000 ipport.c
00000000 l    df *ABS*	00000000 ipraw.c
00000000 l    df *ABS*	00000000 iproute.c
00000000 l    df *ABS*	00000000 udp.c
080569fc l     O .bss	00000002 usocket
00000000 l    df *ABS*	00000000 igmp.c
00000000 l    df *ABS*	00000000 igmp2.c
00000000 l    df *ABS*	00000000 ipopt.c
00000000 l    df *ABS*	00000000 u_mctest.c
0805680c l     O .rwdata	00000004 iCounter.5275
00000000 l    df *ABS*	00000000 dhcsetup.c
00000000 l    df *ABS*	00000000 memdev.c
00000000 l    df *ABS*	00000000 parseip.c
08056e48 l     O .bss	0000001e nearBuf.4902
00000000 l    df *ABS*	00000000 tcpcksum.c
00000000 l    df *ABS*	00000000 in_pcb.c
00000000 l    df *ABS*	00000000 vfsfiles.c
00000000 l    df *ABS*	00000000 vfsport.c
00000000 l    df *ABS*	00000000 alt_fcntl.c
08048f58 l     F .text	0000003c alt_get_errno
00000000 l    df *ABS*	00000000 alt_find_file.c
00000000 l    df *ABS*	00000000 alt_get_fd.c
00000000 l    df *ABS*	00000000 icmp.c
080566b4 l     O .rwdata	00000018 dsts
00000000 l    df *ABS*	00000000 atexit.c
00000000 l    df *ABS*	00000000 atoi.c
00000000 l    df *ABS*	00000000 exit.c
00000000 l    df *ABS*	00000000 malign.c
00000000 l    df *ABS*	00000000 mallocr.c
00000000 l    df *ABS*	00000000 malloc.c
00000000 l    df *ABS*	00000000 sprintf.c
00000000 l    df *ABS*	00000000 strchr.c
00000000 l    df *ABS*	00000000 strncmp.c
00000000 l    df *ABS*	00000000 strncpy.c
00000000 l    df *ABS*	00000000 strtol.c
0804a9dc l     F .text	00000224 _strtol_l.isra.0
00000000 l    df *ABS*	00000000 vfprintf.c
08054488 l     O .rodata	00000010 blanks.5157
08054478 l     O .rodata	00000010 zeroes.5158
00000000 l    df *ABS*	00000000 vprintf.c
00000000 l    df *ABS*	00000000 vsprintf.c
00000000 l    df *ABS*	00000000 __atexit.c
00000000 l    df *ABS*	00000000 __call_atexit.c
00000000 l    df *ABS*	00000000 vfprintf.c
080544a8 l     O .rodata	00000010 blanks.5137
08054498 l     O .rodata	00000010 zeroes.5138
00000000 l    df *ABS*	00000000 vfprintfr_1.c
08056a28 g     O .bss	00000004 alt_instruction_exception_handler
08023760 g     F .text	0000003c alt_msgdma_standard_descriptor_async_transfer
08003564 g     F .text	00000018 putchar
0805f3ac g     O .bss	00000014 soq
0800aac8 g     F .text	00000070 _mprec_log10
0801cdb0 g     F .text	000000cc alt_tse_get_mac_info
08056732 g     O .rwdata	00000002 OSTaskNameSize
0800aba4 g     F .text	00000060 __any_on
0800d0c0 g     F .text	00000058 _isatty_r
0804fdd4 g     O .rodata	00000028 __mprec_tinytens
0803e5cc g     F .text	0000070c ip_write_internal
08011130 g     F .text	000000c0 alt_main
08003658 g     F .text	0000008c strcpy
0802beec g     F .text	000000ac pk_free
0800357c g     F .text	000000cc _puts_r
0805f558 g     O .bss	00000100 alt_irq
08056554 g     O .rwdata	00000009 rtp_priority
0800d1b0 g     F .text	00000064 _lseek_r
0804a0e0 g     F .text	000002ec icmp_timex
0802d788 g     F .text	00000048 m_freem
08048a60 g     F .text	00000048 vgetc
0802c894 g     F .text	00000020 clock_c
08056984 g     O .bss	00000004 tcp_optionbuf
0803e108 g     F .text	0000006c if_getbynum
08015610 g     F .text	000000cc OS_MemInit
08056924 g     O .bss	00000004 dsc_rlyerrs
08056914 g     O .bss	00000004 dsc_releases
08028e38 g     F .text	0000006c TK_OSTaskQuery
0802c5bc g       .text	00000000 asm_cksum
08020970 g     F .text	000000f0 marvell_cfg_rgmii
08018ec8 g     F .text	00000064 OSTimeSet
08048968 g     F .text	000000f8 vgetc_locked
0802d06c g     F .text	00000020 post_task_setup
08041ad0 g     F .text	00000328 ipr_stats
08039c58 g     F .text	00000118 tcp_attach
08056790 g     O .rwdata	00000004 reqlist_len
0802eae0 g     F .text	00000078 tcp_tick
08028178 g     F .text	0000007c print_ipad
08028d60 g     F .text	000000d8 tcp_wakeup
0800f81c g     F .text	00000080 .hidden __eqdf2
08056824 g     O .bss	00000004 last_flash_sector_offset
080568d0 g     O .bss	00000004 igmp_timers_are_running
08002760 g     F .text	000000f0 led_bit_toggle
08036f70 g     F .text	0000012c tcp_pulloutofband
08022460 g     F .text	00000058 alt_msgdma_construct_standard_mm_to_mm_descriptor
08000710 g     F .text	00000090 allListeners
0801dfc4 g     F .text	000001d0 alt_tse_phy_print_profile
08011830 g     F .text	00000638 OSEventPendMulti
0805f8b0 g       *ABS*	00000000 __alt_heap_start
0803c334 g     F .text	00000024 OSTaskCreateHook
08003ec0 g     F .text	00000008 strtok_r
0802b798 g     F .text	00000060 dhc_ifacedone
08020710 g     F .text	00000098 marvell_phy_cfg
08041e48 g     F .text	00000354 ip_rcv
080486f8 g     F .text	00000164 vfseek
0803324c g     F .text	00000108 soqremque
0800d968 g     F .text	00000060 _kill_r
08043970 g     F .text	0000076c udpdemux
0802510c g     F .text	000000dc tse_mac_close
08003524 g     F .text	00000038 printf
080569d0 g     O .bss	00000004 rt_mib
0805670a g     O .rwdata	00000002 OSMboxEn
0802b6c0 g     F .text	00000058 dhc_state_init
0804cd54 g     F .text	0000001c vsprintf
08011ec0 g     F .text	0000004c OSIntEnter
0800d56c g     F .text	0000006c _wcrtomb_r
0800d714 g     F .text	00000084 _signal_r
0800b4cc g     F .text	0000005c __sseek
08008428 g     F .text	00000010 __sinit
08042c34 g     F .text	0000010c in_delmulti
0800ca1c g     F .text	00000148 __swbuf_r
08020ad8 g     F .text	0000005c PEF7071_config
080569e8 g     O .bss	00000004 so_evtmap_create
0805671a g     O .rwdata	00000002 OSQEn
08046dbc g     F .text	00000088 in_pcballoc
080567ac g     O .rwdata	00000002 socket_defaults
0800d118 g     F .text	00000074 _setlocale_r
0803cfe8 g     F .text	00000454 send_arp
080082b0 g     F .text	00000068 __sfmoreglue
08019aa0 g     F .text	000000a8 alt_avalon_i2c_rx_read
08047818 g     F .text	00000338 vfopen_locked
0805682c g     O .bss	00000004 SSSLEDCommandQ
080114f0 g     F .text	000000d4 __malloc_unlock
0805e7d4 g     O .bss	000000e0 eth_tse_if
0803c39c g     F .text	00000020 OSTaskStatHook
0803c7f0 g     F .text	00000054 prep_modules
080276e0 g     F .text	000001dc bsd_i_sockoptlen
08056864 g     O .bss	00000001 OSLockNesting
0802136c g     F .text	00000264 altera_qspi_controller_init
08056788 g     O .rwdata	00000004 xids
0801acb0 g     F .text	00000044 alt_avalon_i2c_enabled_ints_get
08003d40 g     F .text	00000018 strerror
0801cfe8 g     F .text	00000a78 getPHYSpeed
08047d58 g     F .text	00000044 vfclose
0805f44c g     O .bss	0000002c tcb
08056758 g     O .rwdata	00000002 OSDataSize
0803bc10 g     F .text	00000034 alt_remap_cached
08056865 g     O .bss	00000001 OSRunning
0803de50 g     F .text	000002b8 grat_arp
080028fc g     F .text	0000005c get_ip_addr
08046850 g     F .text	00000094 inet_pton
0803e248 g     F .text	0000008c reg_type
0805ef50 g     O .bss	000000f0 dhc_states
0802665c g     F .text	00000170 igmp_fasttimo
08047f04 g     F .text	00000060 vunlink_flag_open_files
0802b4e4 g     F .text	0000007c dhc_halt
08019820 g     F .text	00000094 alt_avalon_i2c_master_config_speed_get
08056908 g     O .bss	00000004 dsc_acks
0805f478 g     O .bss	000000e0 tcpstat
08041400 g     F .text	0000033c ip_reasm_copy_queued_fragments_into_reassy_buffer
0802dcbc g     F .text	00000098 dtom
080383b0 g     F .text	000000fc tcp_setpersist
0803009c g     F .text	00000188 t_getsockopt
08009a3c g     F .text	0000012c memmove
08001750 g     F .text	000002e0 initItfcMap
08056918 g     O .bss	00000004 dsc_naks
0802e0e8 g     F .text	00000588 ip_output
0803c3e8 g     F .text	00000020 OSInitHookBegin
0804a3cc g     F .text	00000054 icmp_du
08056784 g     O .rwdata	00000004 num_net_tasks
08056a0c g     O .bss	00000004 vfiles
08056750 g     O .rwdata	00000002 OSTmrSize
0804600c g     F .text	000000f4 dhc_main_ipset
08008414 g     F .text	00000014 _cleanup
08040624 g     F .text	000002a8 ip_reasm_process_first_fragment
0801a504 g     F .text	00000208 alt_avalon_i2c_master_transmit_using_interrupts
08009b68 g     F .text	000000a4 _Balloc
08003e1c g     F .text	000000a4 __strtok_r
08002c70 g     F .text	0000002c get_board_mac_addr
080223b0 g     F .text	00000058 alt_msgdma_construct_standard_st_to_mm_descriptor
08056868 g     O .bss	00000004 OSIdleCtr
0801f984 g     F .text	000001c4 alt_tse_phy_set_adv_1000
08056768 g     O .rwdata	00000001 max_mac_system
08045010 g     F .text	000005a0 ip_setmoptions
0801c1cc g     F .text	000008c4 alt_tse_system_add_sys
0800f89c g     F .text	000000f0 .hidden __gtdf2
0804636c g     F .text	0000002c md_fseek
0803c0f4 g     F .text	00000024 altera_nios2_gen2_irq_init
0803c1c4 g       .text	00000000 OSStartTsk
08013330 g     F .text	000002e0 OS_TCBInit
080408cc g     F .text	00000088 ip_reassm
080010c4 g     F .text	0000002c SI5345
0802b560 g     F .text	00000160 dhc_reclaim
0805f838 g     O .bss	00000010 udp_mib
14430000 g     F .entry	00000000 __reset
08030838 g     F .text	000000d4 t_shutdown
08008f90 g     F .text	00000008 __localeconv_l
08030300 g     F .text	0000013c t_recvfrom
08056756 g     O .rwdata	00000002 OSTmrWheelTblSize
08045788 g     F .text	0000066c u_mctest_run
08042da4 g     F .text	00000080 prep_ifaces
080568ec g     O .bss	00000001 to_netmain
0802bbd8 g     F .text	000000c0 pk_alloc
080566f6 g     O .rwdata	00000002 OSEventSize
080023c8 g     F .text	000002a8 alt_SSSErrorHandler
0805686c g     O .bss	00000001 OSPrioHighRdy
0800d060 g     F .text	00000060 _fstat_r
080544d8 g     O .rwdata	00000130 tse_mac_device
08028b28 g     F .text	00000048 tk_nettick
0803c358 g     F .text	00000024 OSTaskDelHook
08056834 g     O .bss	00000004 errno
0800b388 g     F .text	00000010 __srget
0803446c g     F .text	000000c8 in_pcbnotify
0800b444 g     F .text	00000008 __seofread
0803c1a4 g       .text	00000000 OSStartHighRdy
0805f040 g     O .bss	00000014 lilfreeq
08001ab8 g     F .text	0000069c alt_uCOSIIErrorHandler
08042e4c g     F .text	0000002c evtmap_setup
08017938 g     F .text	000001dc OSTaskCreateExt
080568f0 g     O .bss	00000004 tcp_sleep_timeout
08033c14 g     F .text	000001b8 sbdrop
080569e4 g     O .bss	00000004 net_system_exit
0804d0e0 g     F .text	000010e4 ___svfiprintf_internal_r
0805f848 g     O .bss	00000068 icmp_mib
08038e10 g     F .text	00000074 tcp_getseq
08043220 g     F .text	000000b8 ip_raw_alloc
08020260 g     F .text	000004b0 alt_tse_phy_set_common_speed
08020ec8 g     F .text	00000210 alt_qspi_controller_write_block
080146b0 g     F .text	00000064 OSFlagPendGetFlagsRdy
08056736 g     O .rwdata	00000002 OSTaskStatStkSize
0805e8b4 g     O .bss	00000010 pmac_groups
08029ff8 g     F .text	0000098c dhc_request
08031930 g     F .text	00000758 soreceive
080137a0 g     F .text	00000324 OSFlagAccept
08015c60 g     F .text	000000bc OSQFlush
080156dc g     F .text	00000144 OSQAccept
0805684c g     O .bss	00000004 alt_argv
0805e6cc g       *ABS*	00000000 _gp
08041df8 g     F .text	00000050 ip_reasm_send_icmp_timex
0803beac g     F .text	00000114 usleep
0801acf4 g     F .text	0000004c alt_avalon_i2c_rx_fifo_threshold_get
08047d9c g     F .text	00000048 vfflush
0805f354 g     O .bss	00000040 resid_semaphore
08028030 g     F .text	00000148 hexdump
0804050c g     F .text	00000090 ip_reasm_incr_mem_useage
08026c70 g     F .text	00000080 igmp_leavegroup
08017794 g     F .text	000001a4 OSTaskCreate
080172d0 g     F .text	000004c4 OSTaskChangePrio
08056860 g     O .bss	00000004 alt_heapsem
08010db8 g     F .text	00000020 getpid
08038c64 g     F .text	000000e8 tcp_close
08013610 g     F .text	00000190 OSDebugInit
08017b14 g     F .text	00000344 OSTaskDel
08048e80 g     F .text	0000005c vferror
0803be34 g     F .text	00000078 alt_uncached_malloc
080199b0 g     F .text	00000044 alt_avalon_i2c_is_busy
0801bce4 g     F .text	00000060 tse_mac_initTransInfo2
08022f48 g     F .text	0000014c alt_msgdma_prefetcher_set_extd_list_own_by_hw_bits
08044514 g     F .text	000000bc udp_alloc
080563bc g     O .rwdata	00000180 alt_fd_list
0805b5b0 g     O .bss	00000370 OSFlagTbl
08056970 g     O .bss	00000008 mbstat
08008e84 g     F .text	0000007c _getc_r
08008f00 g     F .text	00000090 getc
0800355c g     F .text	00000008 _putchar_r
08019754 g     F .text	000000cc alt_avalon_i2c_master_config_set
080128e0 g     F .text	000000b0 OS_EventTaskRemove
08044c84 g     F .text	00000130 igmpv2_chk_set_timer
08028b70 g     F .text	00000030 TK_OSTimeDly
0803b0cc g     F .text	00000090 alt_find_dev
08000e58 g     F .text	00000044 TrafficChanMessage
0800316c g     F .text	00000100 memcpy
0801bf74 g     F .text	00000054 tse_mac_setMIImode
08056920 g     O .bss	00000004 dsc_rebind
0803cc04 g     F .text	0000007c task_stats
0802f4b0 g     F .text	00000050 DOMAIN_CHECK
0802e670 g     F .text	00000038 in_broadcast
08056720 g     O .rwdata	00000002 OSRdyTblSize
080003f4 g     F .text	000000a8 addChan
0801da60 g     F .text	00000048 alt_tse_phy_rd_mdio_addr
08056a08 g     O .bss	00000004 vfsystems
08044464 g     F .text	000000b0 udp_socket
080568c0 g     O .bss	00000004 MaxMtu
0803412c g     F .text	00000150 sock_selscan
08008134 g     F .text	0000000c _cleanup_r
08010af4 g     F .text	000000bc .hidden __floatsidf
080402f4 g     F .text	000000c4 ip_reasm_match_frag_with_ire
080333ac g     F .text	00000058 socantrcvmore
0801bd44 g     F .text	000000c8 tse_mac_sTxWrite
080034e4 g     F .text	00000010 perror
0803b560 g     F .text	0000007c alt_io_redirect
0800f98c g     F .text	000000f0 .hidden __ltdf2
0805694c g     O .bss	00000004 netq_intmask
08046804 g     F .text	0000004c hextoa
0804e1c8 g       *ABS*	00000000 __DTOR_END__
0802345c g     F .text	000000b0 alt_msgdma_start_prefetcher_with_extd_desc_list
0802379c g     F .text	0000003c alt_msgdma_extended_descriptor_async_transfer
08030638 g     F .text	00000200 t_send
0803adac g     F .text	000000d0 alt_close
0802370c g     F .text	00000054 alt_msgdma_register_callback
0801a348 g     F .text	000001bc alt_avalon_i2c_master_transmit
08056978 g     O .bss	00000002 select_wait
08003648 g     F .text	00000010 puts
080286bc g     F .text	00000044 std_out
08049298 g     F .text	00000098 alt_exception_cause_generated_bad_addr
0805e8e4 g     O .bss	00000030 tse_iniche_dev_driver_data
08048aa8 g     F .text	00000124 vfslookup_locked
080311e8 g     F .text	00000098 soaccept
080115c4 g     F .text	00000124 OSEventNameGet
08056704 g     O .rwdata	00000002 OSFlagMax
080036e4 g     F .text	0000065c _strerror_r
0805f3c0 g     O .bss	0000003c tcpmib
08030a58 g     F .text	00000094 t_errno
08042e78 g     F .text	000000d8 ip_raw_open
0802ac24 g     F .text	00000100 dhc_decline
0800aa20 g     F .text	000000a8 __ratio
08011f0c g     F .text	000000f4 OSIntExit
08056808 g     O .rwdata	00000004 ipRoutes
08047eb4 g     F .text	00000050 vfeof
0800c940 g     F .text	0000001c __vfiprintf_internal
080390e0 g     F .text	00000060 tcp_canceltimers
08029920 g     F .text	000001bc dhc_buildheader
0805673e g     O .rwdata	00000002 OSTCBSize
0805686d g     O .bss	00000001 OSPrioCur
0801b61c g     F .text	000002c8 altera_avalon_jtag_uart_read
0804a62c g     F .text	00000010 malloc
08056a04 g     O .bss	00000004 inpcb_cachemiss
08022bb0 g     F .text	000000f0 alt_msgdma_prefetcher_add_standard_desc_to_list
080034f4 g     F .text	00000030 _printf_r
080469c4 g     F .text	000000c4 inet46_addr
08056a00 g     O .bss	00000004 inpcb_cachehits
0800e584 g     F .text	00000064 .hidden __udivsi3
08056378 g     O .rwdata	0000000b tcp_outflags
0805e914 g     O .bss	00000290 tse
08010e14 g     F .text	000000a4 isatty
0801ca90 g     F .text	00000144 alt_tse_sys_enable_mdio_sharing
0800d798 g     F .text	000000c4 _raise_r
08056724 g     O .rwdata	00000002 OSStkWidth
0800cbd4 g     F .text	00000064 __assert_func
08023bc4 g     F .text	0000007c msgdma_reset
0804fe24 g     O .rodata	000000c8 __mprec_tens
08047690 g     F .text	00000070 vf_alloc_and_link_vop
08056718 g     O .rwdata	00000002 OSPtrSize
080569d4 g     O .bss	00000004 ipr_curr_mem
08026350 g     F .text	00000068 exit_hook
080568d4 g     O .bss	00000004 igmp_cticks
0801cd34 g     F .text	0000007c alt_tse_get_mac_info_index
08056960 g     O .bss	00000004 mheap_sem_ptr
080372d8 g     F .text	00000048 ip4_tcpmss
080566f8 g     O .rwdata	00000002 OSEventTblSize
080005c4 g     F .text	000000b8 findExistingChan
0805f7bc g     O .bss	00000014 netlist
08032088 g     F .text	00000098 soshutdown
0803c118 g       .text	00000000 OSCtxSw
0803c77c g     F .text	00000050 packet_check
0802a984 g     F .text	000001ec dhc_setip
0805f3fc g     O .bss	00000014 mbufq
08031198 g     F .text	00000050 soabort
080195c0 g     F .text	00000098 alt_avalon_i2c_enable
08056840 g     O .bss	00000004 __malloc_top_pad
08056870 g     O .bss	00000004 OSTCBList
0800d9c8 g     F .text	00000004 _getpid_r
0802c1e4 g     F .text	00000100 qdel
0803c5e4 g     F .text	00000160 station_state
08043364 g     F .text	00000154 rt_lookup
08056990 g     O .bss	00000004 alt_fd_list_lock
08004130 g     F .text	0000001c strtoul
0801abdc g     F .text	0000006c alt_avalon_i2c_int_disable
08026cf0 g     F .text	000002dc igmp_validate
080212c0 g     F .text	000000ac alt_qspi_controller_read
08008f98 g     F .text	0000000c _localeconv_r
080260ec g     F .text	00000264 ip_startup
08024998 g     F .text	00000198 tse_msgdmaRx_isr
0802f7b4 g     F .text	00000250 t_accept
08032e4c g     F .text	00000098 soisdisconnecting
08009fb4 g     F .text	00000054 __i2b
08008888 g     F .text	000004bc __sfvwrite_r
0800d85c g     F .text	000000b8 __sigtramp_r
08025b2c g     F .text	000003a4 pktdemux
0805b920 g     O .bss	00000c30 OSMemTbl
08056874 g     O .bss	00000001 OSTickStepState
0801db00 g     F .text	0000012c alt_tse_phy_wr_mdio_reg
0802c784 g     F .text	00000088 kbhit
0802fedc g     F .text	000001c0 t_setsockopt
0800b398 g     F .text	00000058 _sbrk_r
0805653c g     O .rwdata	00000018 icmpdu_types
0801e194 g     F .text	000006a8 alt_tse_mac_group_init
08047f64 g     F .text	00000200 vunlink
08023c40 g     F .text	00000a64 tse_mac_init
14000000 g       *ABS*	00000000 __alt_mem_ext_flash_avl_mem
0805671c g     O .rwdata	00000002 OSQMax
08027e90 g     F .text	000000a4 ccksum
08047700 g     F .text	000000c8 vf_alloc_buffer
080569f8 g     O .bss	00000004 cachedRoute
08056794 g     O .rwdata	00000004 lilbufs
0805c550 g     O .bss	00000800 OSTaskStatStk
08046398 g     F .text	00000024 md_ftell
08027f34 g     F .text	00000054 cksum
08015234 g     F .text	000000f4 OSMemNameGet
08030dc0 g     F .text	00000110 sofree
080568c8 g     O .bss	00000004 ifNumber
080566fc g     O .rwdata	00000002 OSFlagEn
0800d264 g     F .text	00000064 _read_r
08056742 g     O .rwdata	00000002 OSTimeTickHookEn
0803ae7c g     F .text	00000078 alt_dcache_flush
08014ec0 g     F .text	000000a4 OS_FlagUnlink
08016128 g     F .text	00000174 OSQPost
080567d4 g     O .rwdata	00000004 alt_max_fd
08012ed0 g     F .text	0000006c OS_MemCopy
0805679c g     O .rwdata	00000004 bigbufs
0801be7c g     F .text	00000070 tse_mac_aTxWrite
08039d70 g     F .text	000000cc tcp_disconnect
08012f3c g     F .text	000000cc OS_Sched
0800cd00 g     F .text	000000f8 _fclose_r
0801513c g     F .text	000000f8 OSMemGet
0801814c g     F .text	000001bc OSTaskNameSet
080080a0 g     F .text	00000028 fflush
0805683c g     O .bss	00000004 __malloc_max_sbrked_mem
08056878 g     O .bss	00000004 OSCtxSwCtr
0805eec8 g     O .bss	00000064 igmpstats
0803c3bc g     F .text	0000002c OSTimeTickHook
08029f24 g     F .text	000000d4 dhc_rx_offer
080278bc g     F .text	00000108 bsd_getsockopt
08056706 g     O .rwdata	00000002 OSFlagNameSize
0805f820 g     O .bss	00000018 ire_stats
0801a70c g     F .text	0000020c alt_avalon_i2c_master_receive
08002850 g     F .text	00000058 LEDManagementTask
08039fa0 g     F .text	000001a0 udp_soinput
0802c134 g     F .text	000000b0 putq
08012990 g     F .text	000000fc OS_EventTaskRemoveMulti
080568e8 g     O .bss	00000004 iniche_net_ready
0800e644 g     F .text	00000978 .hidden __adddf3
08012798 g     F .text	00000148 OS_EventTaskWaitMulti
08048e38 g     F .text	00000048 isvfile
0803221c g     F .text	00000528 sosetopt
080289d0 g     F .text	000000e0 netmain
08037320 g     F .text	000000f8 tcp_mss
0800a7b8 g     F .text	00000104 __b2d
080464a4 g     F .text	000002fc parse_ipad
08047670 g     F .text	00000020 get_vfopen_error
08022910 g     F .text	00000058 alt_msgdma_construct_prefetcher_standard_st_to_mm_descriptor
0805671e g     O .rwdata	00000002 OSQSize
0800df5c g     F .text	00000534 .hidden __umoddi3
0801105c g     F .text	000000d4 lseek
0803c844 g     F .text	0000008c inet_timer
08016c18 g     F .text	00000214 OSSemPend
0801dcfc g     F .text	000002c8 alt_tse_phy_add_profile_default
0801ac48 g     F .text	00000068 alt_avalon_i2c_int_enable
0801f3f8 g     F .text	0000058c alt_tse_phy_get_cap
0800067c g     F .text	00000094 buildaddChan
080566cc g     O .rwdata	00000004 _global_impure_ptr
0802837c g     F .text	00000154 print_eth
08047b50 g     F .text	00000050 vfopen
0803babc g     F .text	000000fc alt_read
0800adb0 g     F .text	00000564 _realloc_r
08002154 g     F .text	00000274 alt_NetworkErrorHandler
08056708 g     O .rwdata	00000002 OSLowestPrio
0805f8b0 g       *ABS*	00000000 __bss_end
0803b3c8 g     F .text	000000e8 alt_iic_isr_register
0802d684 g     F .text	00000104 m_free
0804ac04 g     F .text	0000001c strtol_l
0803c448 g     F .text	00000024 OSTCBInitHook
080250cc g     F .text	00000040 tse_mac_stats
0802bc98 g     F .text	00000254 pk_validate
0805674e g     O .rwdata	00000002 OSTmrCfgTicksPerSec
0803bce8 g     F .text	00000108 alt_tick
080473f0 g     F .text	00000254 in_pcblookup
0802b88c g     F .text	000000c0 find_opt
08023564 g     F .text	000001a8 alt_msgdma_init
0800d9cc g     F .text	00000590 .hidden __udivdi3
0802d4fc g     F .text	00000188 m_getnbuf
0801ab04 g     F .text	00000058 alt_avalon_i2c_int_status_get
0802bfb8 g     F .text	000000c4 dump_buf_estats
0800cfc4 g     F .text	00000024 _fputwc_r
0801f270 g     F .text	00000188 alt_tse_phy_check_link
080569cc g     O .bss	00000004 arpRepsOut
080566f0 g     O .rwdata	00000002 OSEventEn
0804fdfc g     O .rodata	00000028 __mprec_bigtens
08009d68 g     F .text	00000138 __s2b
0805674a g     O .rwdata	00000002 OSTmrCfgNameSize
0800d69c g     F .text	00000018 abort
08010bb0 g     F .text	00000090 .hidden __floatunsidf
0803c46c g     F .text	000000ec netmain_init
0802088c g     F .text	000000e4 marvell_cfg_sgmii
0801f0ac g     F .text	000001c4 alt_tse_phy_restart_an
0800a4d8 g     F .text	00000058 __mcmp
08023814 g     F .text	0000003c alt_msgdma_extended_descriptor_sync_transfer
08056904 g     O .bss	00000004 dsc_requests
080386c8 g     F .text	000003f4 tcp_respond
0803a378 g     F .text	000002d0 udp4_sockbind
08056950 g     O .bss	00000004 old_mode
080010f0 g     F .text	0000002c ZEDF9T
08026a44 g     F .text	0000022c igmp_joingroup
0802e798 g     F .text	00000348 so_icmpdu
08008448 g     F .text	00000014 __fp_lock_all
08056a18 g     O .bss	00000004 vfs_dir_stale
0803b37c g     F .text	0000004c alt_ic_irq_enabled
0805e8c4 g     O .bss	00000020 pphy_profiles
0804173c g     F .text	000000c8 ip_reasm_process_timer_tick
08048edc g     F .text	00000058 vclearerr
08027db4 g     F .text	000000dc bsd_setsockopt
0802dc68 g     F .text	00000054 mbuf_len
08014cec g     F .text	000000e0 OS_FlagInit
0803bc44 g     F .text	000000a4 alt_alarm_stop
08048c14 g     F .text	000001cc strippath
0805678c g     O .rwdata	00000004 reqlist
08028c14 g     F .text	0000014c tcp_sleep
0804ac20 g     F .text	0000001c strtol
08029238 g     F .text	000006e8 dhc_upcall
08039e3c g     F .text	000000c8 tcp_usrclosed
18000000 g       *ABS*	00000000 __alt_mem_descriptor_memory
0805693c g     O .bss	00000004 cticks_factor
08019400 g     F .text	00000054 alt_avalon_i2c_register_callback
0805672c g     O .rwdata	00000002 OSTaskIdleStkSize
08046e9c g     F .text	00000210 in_pcbbind
08056994 g     O .bss	00000004 alt_irq_active
08019454 g     F .text	0000012c alt_avalon_i2c_init
08016838 g     F .text	000000b4 OSSemAccept
08015444 g     F .text	000000e0 OSMemPut
08014f64 g     F .text	000001d8 OSMemCreate
0805687c g     O .bss	00000004 OSIdleCtrMax
080001fc g     F .exceptions	000000c8 alt_irq_handler
08056394 g     O .rwdata	00000028 alt_dev_null
08022548 g     F .text	00000090 alt_msgdma_construct_extended_mm_to_st_descriptor
080567ae g     O .rwdata	00000001 tcprexmtthresh
08056740 g     O .rwdata	00000002 OSTicksPerSec
0803e2d4 g     F .text	00000094 if_killsocks
0803ecd8 g     F .text	00000210 ip_write
0804219c g     F .text	000005a0 ip_rcv_phase2
0802fcb8 g     F .text	00000044 t_getsockname
0802fa04 g     F .text	00000270 t_connect
080567a8 g     O .rwdata	00000004 TCPTV_MSL
0805f054 g     O .bss	00000010 memestats
0801efa0 g     F .text	0000010c alt_tse_phy_init
0802c80c g     F .text	00000050 getch
08056634 g     O .rwdata	00000080 vfs_root_path
0802fc74 g     F .text	00000044 t_getpeername
0804059c g     F .text	00000088 ip_reasm_decr_mem_useage
08033538 g     F .text	00000088 soreserve
0803c118 g       .text	00000000 OSIntCtxSw
0802d2b0 g     F .text	00000034 npalloc
080233ac g     F .text	000000b0 alt_msgdma_start_prefetcher_with_std_desc_list
08009ea0 g     F .text	00000064 __hi0bits
080569f4 g     O .bss	00000004 ipraw_eps
0802b94c g     F .text	0000028c pk_init
0804619c g     F .text	00000158 md_fread
080247c4 g     F .text	000001d4 tse_mac_raw_send
08010a74 g     F .text	00000080 .hidden __fixdfsi
08000e14 g     F .text	00000044 ConfigChanMessage
0805f658 g     O .bss	00000064 intimers
08033610 g     F .text	0000004c sbrelease
080345b4 g     F .text	000000e4 ifd_clr
08033ecc g     F .text	00000090 sbdroprecord
080284d0 g     F .text	0000007c uslash
0803bffc g     F .text	000000f8 alt_write
080569c8 g     O .bss	00000004 arpRepsIn
080290cc g     F .text	00000088 dhc_get_srv_ipaddr
0803ca1c g     F .text	0000012c in_timerset
08056880 g     O .bss	00000004 OSTCBFreeList
08016e2c g     F .text	00000174 OSSemPendAbort
08037418 g     F .text	00000f98 tcp_output
080569a0 g     O .bss	00000004 activehost
080567cc g     O .rwdata	00000008 alt_dev_list
080287d8 g     F .text	000001f8 parse_args
08056954 g     O .bss	00000004 global_TCPwakeup_setIndx
080253e0 g     F .text	00000068 write
0802d2e4 g     F .text	00000040 npfree
0800ac04 g     F .text	000000cc _putc_r
08019ddc g     F .text	0000004c alt_avalon_i2c_check_arblost
0803d6a4 g     F .text	000002c0 arpReply
08027fb4 g     F .text	0000007c nextarg
08056744 g     O .rwdata	00000002 OSVersionNbr
08040ea8 g     F .text	00000500 ip_reasm_process_subsequent_fragments
08003d58 g     F .text	00000018 strerror_l
08056814 g     O .rwdata	00000004 pton_error
080568f8 g     O .bss	00000004 dsc_errors
0801aba0 g     F .text	0000003c alt_avalon_i2c_int_clear
08057538 g     O .bss	00002000 SSSInitialTaskStk
0805eba4 g     O .bss	00000014 rcvdq
08034534 g     F .text	00000080 tcp_notify
08010d08 g     F .text	000000b0 fstat
08002fc0 g     F .text	00000024 fprintf
08031280 g     F .text	000000b8 soconnect
0804331c g     F .text	00000048 ip_raw_maxalloc
08010ef4 g     F .text	0000012c kill
0800f98c g     F .text	000000f0 .hidden __ledf2
08020a60 g     F .text	00000078 DP83848C_link_status_read
08029adc g     F .text	00000448 dhc_discover
08056760 g     O .rwdata	00000008 alt_avalon_i2c_list
08002cc8 g     F .text	00000084 SSSCreateOSDataStructs
0804736c g     F .text	00000084 in_setpeeraddr
080566ec g     O .rwdata	00000004 OSEndiannessTest
0802c85c g     F .text	00000038 clock_init
08047de4 g     F .text	000000d0 vfgets
0803cd68 g     F .text	00000180 et_send
0800a238 g     F .text	00000118 __pow5mult
0800b63c g     F .text	00001304 ___vfiprintf_internal_r
0800e5e8 g     F .text	0000005c .hidden __umodsi3
080467a0 g     F .text	00000064 inet_addr
08040488 g     F .text	00000084 ip_reasm_check_mem_useage
08032120 g     F .text	000000fc sorflush
0804ccd8 g     F .text	0000001c vprintf
0805f168 g     O .bss	000000fc global_tcb_ext
0803f318 g     F .text	00000400 ip_fragment_lc
0805ebb8 g     O .bss	00000300 netstatic
0802f580 g     F .text	00000160 t_bind
080566fe g     O .rwdata	00000002 OSFlagGrpSize
0802c4e4 g     F .text	000000d8 udp_close
08022968 g     F .text	00000058 alt_msgdma_construct_prefetcher_standard_mm_to_st_descriptor
0802ce60 g     F .text	000001c0 alt_iniche_init
0805f8b0 g       *ABS*	00000000 end
0802ca74 g     F .text	00000084 UNLOCK_NET_RESOURCE
08030224 g     F .text	000000dc t_recv
08023998 g     F .text	0000022c prep_tse_mac
08048164 g     F .text	00000188 vfread
08025a48 g     F .text	000000e4 netclose
08002dc8 g     F .text	000001d0 SSSSimpleSocketServerTask
0804a440 g     F .text	0000000c _atoi_r
0801c018 g     F .text	000001b4 alt_tse_phy_add_profile
080567b8 g     O .rwdata	00000004 tcp_keepintvl
0801afb8 g     F .text	00000150 altera_avalon_jtag_uart_init
0801319c g     F .text	000000d0 OS_TaskStat
080568fc g     O .bss	00000004 dsc_discovers
080002c4 g     F .exceptions	00000074 alt_instruction_exception_entry
08019580 g     F .text	00000040 alt_avalon_i2c_open
08056330 g     O .rwdata	00000018 tcp_protosw
0804e1c8 g       *ABS*	00000000 __CTOR_LIST__
08056a14 g     O .bss	00000004 vfopen_error
10000000 g       *ABS*	00000000 __alt_stack_pointer
08019f5c g     F .text	000000e8 alt_avalon_i2c_master_tx
08056988 g     O .bss	00000004 tcp_maxidle
08056928 g     O .bss	00000004 firstudp
0801bc30 g     F .text	00000084 alt_avalon_timer_sc_init
08010c40 g     F .text	00000054 .hidden __clzsi2
0801b8e4 g     F .text	000002d0 altera_avalon_jtag_uart_write
08008438 g     F .text	00000004 __sfp_lock_acquire
08009968 g     F .text	000000d4 memchr
08012e78 g     F .text	00000058 OS_MemClr
08004154 g     F .text	000020dc ___vfprintf_internal_r
0803c1e8 g     F .text	0000014c OSTaskStkInit
0804a64c g     F .text	00000054 _sprintf_r
0800858c g     F .text	000002fc _free_r
08044db4 g     F .text	00000148 igmpv2_chk4_rtr_alert_opt
0803b824 g     F .text	0000022c alt_printf
0804f440 g     O .rodata	00000180 _ctype_b
0800d18c g     F .text	0000000c __locale_mb_cur_max
0803090c g     F .text	000000c0 t_socketclose
08012508 g     F .text	00000188 OS_EventTaskRdy
0804ce00 g     F .text	00000120 __call_exitprocs
0800b314 g     F .text	00000074 __srget_r
08056884 g     O .bss	00000001 OSCPUUsage
0805eeb8 g     O .bss	00000010 nets
0802c9b8 g     F .text	000000bc LOCK_NET_RESOURCE
0802ab70 g     F .text	000000b4 dhc_resetip
08019310 g     F .text	00000050 alt_avalon_i2c_register_optional_irq_handler
08024b30 g     F .text	00000060 tse_msgdmaTx_isr
08024f80 g     F .text	0000014c tse_mac_rcv
0802f500 g     F .text	00000080 t_socket
080566d4 g     O .rwdata	00000004 __malloc_sbrk_base
08000338 g     F .text	00000048 _start
0803cd20 g     F .text	00000048 etainit
08056998 g     O .bss	00000004 _alt_tick_rate
0803c7cc g     F .text	00000024 mcastlist
08015d1c g     F .text	00000298 OSQPend
0805f064 g     O .bss	000000f0 pktlog
080449b0 g     F .text	00000114 igmpv2_process_report
0803470c g     F .text	00000074 ifd_isset
08020d18 g     F .text	0000008c alt_qspi_controller_get_info
0804385c g     F .text	00000114 del_route
0800414c g     F .text	00000008 _user_strerror
08018a20 g     F .text	00000108 OSTimeDly
0801a918 g     F .text	000001ec alt_avalon_i2c_master_receive_using_interrupts
0801ad40 g     F .text	00000064 alt_avalon_i2c_rx_fifo_threshold_set
080028a8 g     F .text	00000054 get_mac_addr
08030cf0 g     F .text	000000d0 solisten
0800a350 g     F .text	00000188 __lshift
0805699c g     O .bss	00000004 _alt_nticks
08022408 g     F .text	00000058 alt_msgdma_construct_standard_mm_to_st_descriptor
0801dc2c g     F .text	000000d0 alt_tse_phy_rd_mdio_reg
0800d924 g     F .text	00000018 signal
08025370 g     F .text	00000070 read
08018f9c g     F .text	00000264 alt_sys_init
0804cf20 g     F .text	000001c0 __ssprint_r
08038d4c g     F .text	0000004c tcp_quench
0802854c g     F .text	00000170 ns_printf
0803e174 g     F .text	000000d4 isbcast
0802caf8 g     F .text	00000240 TK_NEWTASK
08000c70 g     F .text	000001a4 ProvChanMessage
0804cd70 g     F .text	00000090 __register_exitproc
08056885 g     O .bss	00000001 OSTaskCtr
08056e68 g     O .bss	000005dd buffer
080403b8 g     F .text	000000d0 ip_reasm_determine_type_of_frag
080568b4 g     O .bss	00000001 phy_profile_count
0804a860 g     F .text	000000c4 strncmp
0801ccc8 g     F .text	0000006c alt_tse_get_mac_group_index
0801a180 g     F .text	000001c8 alt_avalon_i2c_master_tx_rx
08018b28 g     F .text	00000160 OSTimeDlyHMSM
08042f50 g     F .text	000000bc ip_raw_close
0800a008 g     F .text	00000230 __multiply
08056584 g     O .rwdata	000000b0 mdlist
0801b4c0 g     F .text	00000068 altera_avalon_jtag_uart_close
0802658c g     F .text	000000d0 igmp_input
0803f25c g     F .text	000000bc ip_raw_write
080482ec g     F .text	000003ac vfwrite_locked
0804a924 g     F .text	000000b8 strncpy
08056900 g     O .bss	00000004 dsc_offers
08056dcc g     O .bss	00000028 __malloc_current_mallinfo
080566f2 g     O .rwdata	00000002 OSEventMax
08046a88 g     F .text	0000006c inet_setport
0800a8bc g     F .text	00000164 __d2b
08016fa0 g     F .text	0000011c OSSemPost
08036de8 g     F .text	00000188 tcp_dooptions
08056830 g     O .bss	00000004 SSSLEDEventFlag
08032d48 g     F .text	00000104 soisconnected
08012090 g     F .text	000000e4 OSSchedUnlock
08042e24 g     F .text	00000028 netexit
08002958 g     F .text	00000194 get_serial_number
080568e4 g     O .bss	00000004 nettick_wakes
0801daa8 g     F .text	00000058 alt_tse_phy_wr_mdio_addr
0805697c g     O .bss	00000001 tcpprintfs
0803cb48 g     F .text	00000098 in_timerkill
080448a0 g     F .text	00000110 igmpv2_input
08056910 g     O .bss	00000004 dsc_declines
0801ae54 g     F .text	00000060 altera_avalon_jtag_uart_read_fd
08004110 g     F .text	00000004 _strtoul_r
08027f88 g     F .text	0000002c do_trap
080491c0 g     F .text	000000d8 alt_get_fd
080279c4 g     F .text	000000f0 bsd_ioctl
08056888 g     O .bss	00000004 OSMemFreeList
080121dc g     F .text	000000b8 OSStatInit
0802df34 g     F .text	000001b4 tcp_rcv
08028334 g     F .text	00000048 panic
08056a1c g     O .bss	00000004 vfs_open_files
08025f60 g     F .text	0000018c ip2mac
0803ac18 g     F .text	00000158 alt_busy_sleep
08014ac0 g     F .text	000000c8 OSFlagQuery
0803427c g     F .text	000001f0 sock_select
08045df4 g     F .text	00000218 dhc_setup
08038578 g     F .text	00000048 tcp_init
08056958 g     O .bss	00000004 cticks
080007a0 g     F .text	00000174 ProcessRxPacket
080568ed g     O .bss	00000001 to_nettick
08056728 g     O .rwdata	00000002 OSTaskCreateExtEn
0800cb7c g     F .text	00000058 _close_r
08025448 g     F .text	000004d0 Netinit
0802d08c g     F .text	00000038 prep_armintcp
08042ae8 g     F .text	0000014c in_addmulti
08000e9c g     F .text	00000228 ProvisioningLEDCommand
080385c0 g     F .text	00000108 tcp_template
0801ff44 g     F .text	0000031c alt_tse_phy_get_common_speed
0802dd54 g     F .text	00000070 remque
08003e08 g     F .text	00000014 strtok
0804ccf4 g     F .text	00000014 _vprintf_r
080347e0 g     F .text	000003f0 tcp_reass
08046c28 g     F .text	00000194 tcp_cksum
0803a648 g     F .text	00000374 udp4_socksend
080228b8 g     F .text	00000058 alt_msgdma_construct_prefetcher_standard_mm_to_mm_descriptor
08047ba0 g     F .text	000001b8 vfclose_locked
08034698 g     F .text	00000074 ifd_set
080199f4 g     F .text	000000ac alt_avalon_i2c_rx_read_available
080030f4 g     F .text	00000078 memcmp
080124e8 g     F .text	00000020 OS_Dummy
0801af14 g     F .text	00000050 altera_avalon_jtag_uart_close_fd
0802b7f8 g     F .text	00000094 dhc_set_state
080568c4 g     O .bss	00000004 NDEBUG
0805f8b0 g       *ABS*	00000000 __alt_stack_base
08056828 g     O .bss	00000004 last_flash_sector
0801af64 g     F .text	00000054 altera_avalon_jtag_uart_ioctl_fd
080335c0 g     F .text	00000050 sbreserve
080568b5 g     O .bss	00000001 mac_group_count
0804300c g     F .text	00000214 ip_raw_input
08002fe4 g     F .text	000000c4 _fwrite_r
08056798 g     O .rwdata	00000004 lilbufsiz
08034780 g     F .text	00000060 ifd_get
080334ac g     F .text	0000008c sbwakeup
080229c0 g     F .text	000000a0 alt_msgdma_construct_prefetcher_extended_st_to_mm_descriptor
08001a30 g     F .text	00000088 FindItfcIndex
08006370 g     F .text	0000015c __swsetup_r
08023850 g     F .text	00000148 altera_eth_tse_init
0805cd50 g     O .bss	000001e0 OSQTbl
0803709c g     F .text	0000023c tcp_xmit_timer
0800efbc g     F .text	00000860 .hidden __divdf3
08008318 g     F .text	000000fc __sfp
08002b40 g     F .text	00000130 generate_mac_addr
0803e440 g     F .text	0000018c ip_bldhead
0800ab38 g     F .text	0000006c __copybits
0803365c g     F .text	000000a0 sbappend
08054a2c g     O .rwdata	00000408 __malloc_av_
08008444 g     F .text	00000004 __sinit_lock_release
0805688c g     O .bss	00000004 OSTCBHighRdy
0800fa7c g     F .text	00000670 .hidden __muldf3
0803eee8 g     F .text	00000374 ip_write2
0800b3f0 g     F .text	00000054 __sread
08056800 g     O .rwdata	00000004 arp_ageout
08056890 g     O .bss	00000004 OSQFreeList
0801e83c g     F .text	000003fc alt_tse_mac_get_phy
0803e368 g     F .text	000000d8 ip_init
080490b8 g     F .text	00000108 alt_find_file
080432d8 g     F .text	00000044 ip_raw_free
08020c08 g     F .text	00000110 alt_qspi_controller_lock
0803d5a8 g     F .text	000000fc make_arp_entry
0803af5c g     F .text	000000a8 alt_dev_llist_insert
080113c8 g     F .text	00000128 __malloc_lock
08002f98 g     F .text	00000028 _fprintf_r
080111f0 g     F .text	000000b8 sbrk
0804ac3c g     F .text	0000209c ___svfprintf_internal_r
08039f44 g     F .text	0000005c udp_lookup
08019e28 g     F .text	00000134 alt_avalon_i2c_interrupt_transaction_status
08001148 g     F .text	00000308 ATECC608
08019d90 g     F .text	0000004c alt_avalon_i2c_check_nack
080116e8 g     F .text	00000148 OSEventNameSet
08008040 g     F .text	00000060 _fflush_r
0801cf5c g     F .text	0000008c alt_tse_mac_set_duplex
0800cc4c g     F .text	000000b4 _calloc_r
0802d1d0 g     F .text	000000e0 npfree_base
08056894 g     O .bss	00000001 OSRdyGrp
08046150 g     F .text	00000028 md_fopen
08056348 g     O .rwdata	00000018 udp_protosw
080567dc g     O .rwdata	00000008 alt_flash_dev_list
080246a4 g     F .text	00000120 tse_msgdma_write_init
080472e8 g     F .text	00000084 in_setsockaddr
0805681c g       *ABS*	00000000 __bss_start
080336fc g     F .text	000000d8 sbappendrecord
0805f7d0 g     O .bss	00000050 ip_mib
0800326c g     F .text	000000f0 memset
0802350c g     F .text	00000058 alt_msgdma_open
08031338 g     F .text	00000098 sodisconnect
080026e0 g     F .text	00000080 main
08019d5c g     F .text	00000034 alt_avalon_i2c_master_target_set
08056850 g     O .bss	00000004 alt_envp
08056838 g     O .bss	00000004 __malloc_max_total_mem
08022ca0 g     F .text	00000198 alt_msgdma_prefetcher_add_extended_desc_to_list
0802daa8 g     F .text	000001c0 m_adj
0801aeb4 g     F .text	00000060 altera_avalon_jtag_uart_write_fd
0800cb64 g     F .text	00000018 __swbuf
080463bc g     F .text	000000c4 md_fgetc
0801ab5c g     F .text	00000044 alt_avalon_i2c_int_raw_status_get
0805006c g     O .rodata	00000100 OSUnMapTbl
0803fd58 g     F .text	000002a4 ip_dump
08028ed4 g     F .text	000001f8 tk_stats
08056774 g     O .rwdata	00000008 alt_iniche_dev_list
08059538 g     O .bss	00000078 SSSLEDCommandQTbl
08056722 g     O .rwdata	00000002 OSSemEn
08056940 g     O .bss	00000004 OS_TPS
0802ed78 g     F .text	00000738 rawip_usrreq
08014714 g     F .text	000003ac OSFlagPost
0800b528 g     F .text	00000008 __sclose
08046968 g     F .text	0000005c print46_addr
10000000 g       *ABS*	00000000 __alt_heap_limit
0800cdf8 g     F .text	00000010 fclose
08012690 g     F .text	00000108 OS_EventTaskWait
0804ac00 g     F .text	00000004 _strtol_r
080030e4 g     F .text	00000010 getchar
080281f4 g     F .text	00000140 print_uptime
0801326c g     F .text	000000c4 OS_TaskStatStkChk
08017e58 g     F .text	00000158 OSTaskDelReq
080066c8 g     F .text	00001750 _dtoa_r
08023094 g     F .text	00000318 alt_msgdma_start_prefetcher_with_list_addr
08009188 g     F .text	000007e0 _malloc_r
08046480 g     F .text	00000024 md_unlink
0801beec g     F .text	00000088 tse_mac_SwReset
0800d66c g     F .text	00000030 __ascii_wctomb
08046e44 g     F .text	00000058 in_pcbdetach
080567d8 g     O .rwdata	00000004 alt_errno
08056810 g     O .rwdata	00000004 mdlist_size
08022af8 g     F .text	000000b8 alt_msgdma_construct_prefetcher_extended_mm_to_mm_descriptor
08012174 g     F .text	00000068 OSStart
0800ce08 g     F .text	00000020 _fiprintf_r
08045754 g     F .text	00000034 u_mctest_init
0800d93c g     F .text	0000001c _init_signal
08011368 g     F .text	00000060 __env_unlock
080015c0 g     F .text	00000190 ProvisioningModuleRegisterCommand
08008d44 g     F .text	00000098 _fwalk
08018308 g     F .text	000001e0 OSTaskResume
08015524 g     F .text	000000ec OSMemQuery
08046af4 g     F .text	00000134 convert_ip
0803d43c g     F .text	0000016c find_oldest_arp
08056734 g     O .rwdata	00000002 OSTaskStatEn
080569c0 g     O .bss	00000004 arpReqsIn
080477c8 g     F .text	00000050 vf_free_buffer
0800d214 g     F .text	0000000c _mbtowc_r
08048f94 g     F .text	00000124 alt_fcntl
0805670e g     O .rwdata	00000002 OSMemMax
0801629c g     F .text	0000017c OSQPostFront
0802c750 g     F .text	00000034 dtrap
080567a4 g     O .rwdata	00000004 kb_last
0800acd0 g     F .text	000000e0 putc
0800e490 g     F .text	00000080 .hidden __divsi3
0801cc14 g     F .text	00000048 alt_tse_mac_set_common_speed
08056895 g     O .bss	00000003 OSRdyTbl
080566e8 g     O .rwdata	00000002 OSDebugEn
0802d0c4 g     F .text	0000010c npalloc_base
080263b8 g     F .text	000000b4 ip_exit
08008470 g     F .text	0000011c _malloc_trim_r
0804e1c8 g       *ABS*	00000000 __CTOR_END__
08056700 g     O .rwdata	00000002 OSFlagNodeSize
080568f4 g     O .bss	00000004 dhc_conn
0802c8b4 g     F .text	0000005c cticks_hook
08056748 g     O .rwdata	00000002 OSTmrCfgMax
0803c744 g     F .text	00000038 sysuptime
0800d4b0 g     F .text	000000b8 strcmp
08002aec g     F .text	00000054 generate_and_store_mac_addr
08041804 g     F .text	000001a8 ip_reasm_delete_ire
08015820 g     F .text	000001b0 OSQCreate
0802c910 g     F .text	00000060 irq_Mask
08017fb0 g     F .text	0000019c OSTaskNameGet
080569a8 g     O .bss	00000004 nextppp
08056930 g     O .bss	00000004 irq_level
08025918 g     F .text	00000130 fixup_subnet_mask
08016418 g     F .text	00000218 OSQPostOpt
08012294 g     F .text	00000234 OSTimeTick
080401c8 g     F .text	0000012c ip_copypkt
0802b718 g     F .text	00000080 dhc_alldone
08056730 g     O .rwdata	00000002 OSTaskMax
0804e1c8 g       *ABS*	00000000 __DTOR_LIST__
080168ec g     F .text	000000dc OSSemCreate
080568d8 g     O .bss	00000004 igmp_all_hosts_group
08056754 g     O .rwdata	00000002 OSTmrWheelSize
08033404 g     F .text	0000003c sbselqueue
080568e0 g     O .bss	00000004 netmain_wakes
0803d964 g     F .text	00000264 arprcv
08004114 g     F .text	0000001c strtoul_l
08028ba0 g     F .text	00000074 TK_OSTaskResume
08026fcc g     F .text	000003b4 igmp_print_stats
0800f81c g     F .text	00000080 .hidden __nedf2
0802d398 g     F .text	00000090 pffindtype
0805672a g     O .rwdata	00000002 OSTaskDelEn
080567bc g     O .rwdata	00000004 tcp_sendspace
0804885c g     F .text	0000010c vftell
0805ef2c g     O .bss	00000012 eth_prt_buf
080170bc g     F .text	00000114 OSSemQuery
080159d0 g     F .text	00000290 OSQDel
08015fb4 g     F .text	00000174 OSQPendAbort
08018f60 g     F .text	0000003c alt_irq_init
0801cbd4 g     F .text	00000040 alt_tse_mac_get_common_speed
0805f394 g     O .bss	00000018 app_semaphore
0803bbb8 g     F .text	00000058 alt_release_fd
080237d8 g     F .text	0000003c alt_msgdma_standard_descriptor_sync_transfer
0802cdec g     F .text	00000074 post_app_sem
080264ec g     F .text	000000a0 igmp_init
0804a480 g     F .text	00000018 memalign
0804a6a0 g     F .text	00000064 sprintf
0804ff5c g     O .rodata	00000100 .hidden __clz_tab
0800049c g     F .text	000000b0 delChan
08001450 g     F .text	00000170 PCF8574
0805691c g     O .bss	00000004 dsc_renew
08000000 g       *ABS*	00000000 __alt_mem_mem_if_ddr3_emif_0
080462f4 g     F .text	00000078 md_fwrite
08056844 g     O .bss	00000004 _PathLocale
08056944 g     O .bss	00000004 tcp_sleep_count
0802ddc4 g     F .text	0000007c insque
0804a420 g     F .text	00000014 atexit
08056a10 g     O .bss	00000004 vfsfiles
0800630c g     F .text	00000064 _write_r
0804cd08 g     F .text	0000004c _vsprintf_r
080440dc g     F .text	00000294 udp_send
08012000 g     F .text	00000090 OSSchedLock
080267cc g     F .text	00000278 igmp_send
0800d198 g     F .text	00000018 setlocale
08022a60 g     F .text	00000098 alt_msgdma_construct_prefetcher_extended_mm_to_st_descriptor
08013ac4 g     F .text	00000110 OSFlagCreate
080595b0 g     O .bss	00002000 LEDManagementTaskStk
0802c970 g     F .text	00000048 irq_Unmask
0802f6e0 g     F .text	000000d4 t_listen
08020b34 g     F .text	000000a0 PEF7071_link_status_read
080566d0 g     O .rwdata	00000004 _impure_ptr
080544c0 g     O .rwdata	00000018 ssstask
08056848 g     O .bss	00000004 alt_argc
080395a0 g     F .text	000006b8 tcp_usrreq
0803a140 g     F .text	00000238 udp_usrreq
0802d324 g     F .text	00000034 ncpalloc
08007e18 g     F .text	00000228 __sflush_r
0803b068 g     F .text	00000064 _do_dtors
080566fa g     O .rwdata	00000002 OSEventMultiEn
080567f8 g     O .rwdata	00000004 pingdelay
08019d24 g     F .text	00000038 alt_avalon_i2c_master_target_get
0803cf70 g     F .text	00000078 arp_send_pending
08019c34 g     F .text	000000f0 alt_avalon_i2c_send_address
08044638 g     F .text	00000268 igmpv1_input
0800d2e4 g     F .text	000001cc __srefill_r
0802d020 g     F .text	0000004c pre_task_setup
08056964 g     O .bss	00000004 rcvdq_sem_ptr
080275c0 g     F .text	00000120 bsd_getsockname
080419ac g     F .text	00000124 ip_reasm_mark_compact_rfq
08002c9c g     F .text	0000002c FindLastFlashSectorOffset
08013bd4 g     F .text	00000258 OSFlagDel
08056898 g     O .bss	00000004 OSEventFreeList
080291f8 g     F .text	00000040 dhc_set_callback
08000120 g       .exceptions	00000000 alt_irq_entry
080569b8 g     O .bss	00000004 arpcache
08049e0c g     F .text	000002d4 icmp_destun
0800d220 g     F .text	00000044 __ascii_mbtowc
08042d40 g     F .text	00000064 lookup_mcast
08048bcc g     F .text	00000048 vfslookup
0804273c g     F .text	000003ac ip_demux
0800a75c g     F .text	0000005c __ulp
08056948 g     O .bss	00000004 tcp_wakeup_count
080140b0 g     F .text	00000600 OSFlagPend
08056746 g     O .rwdata	00000002 OSTmrEn
0800845c g     F .text	00000014 __fp_unlock_all
0802cd38 g     F .text	000000b4 wait_app_sem
0800054c g     F .text	00000078 findfdChan
0805677c g     O .rwdata	00000004 ipmcfail_str
0805695c g     O .bss	00000004 memtrapsize
0802d7d0 g     F .text	000002d8 m_copy
080567c4 g     O .rwdata	00000008 alt_fs_list
0805f410 g     O .bss	00000014 mfreeq
08020da4 g     F .text	00000124 alt_qspi_controller_erase_block
08013074 g     F .text	00000074 OS_StrCopy
08030c94 g     F .text	0000005c sobind
0805675c g     O .rwdata	00000004 eth_tse_name
08046100 g     F .text	00000050 init_memdev
08056820 g     O .bss	00000001 to_ssstask
0802de40 g     F .text	000000f4 nptcp_init
08056710 g     O .rwdata	00000002 OSMemNameSize
0805f264 g     O .bss	000000f0 global_TCPwakeup_set
0803c408 g     F .text	00000020 OSInitHookEnd
08032ee4 g     F .text	000000c4 soisdisconnected
0803cee8 g     F .text	00000088 arp_free_pending
0805673c g     O .rwdata	00000002 OSTCBPrioTblMax
08008fa4 g     F .text	0000000c localeconv
08030ed0 g     F .text	000002c8 soclose
08000380 g     F .text	00000074 initChan
0805f154 g     O .bss	00000014 bigfreeq
08008fb0 g     F .text	00000098 __swhatbuf_r
08056738 g     O .rwdata	00000002 OSTaskStatStkChkEn
080567f4 g     O .rwdata	00000004 prompt
0801adf0 g     F .text	00000064 alt_avalon_i2c_tfr_cmd_fifo_threshold_set
080567b4 g     O .rwdata	00000004 tcp_keepidle
0801fd9c g     F .text	000001a8 alt_tse_phy_set_adv_10
0802ebb4 g     F .text	000001c4 rawip_soinput
0803b218 g     F .text	00000050 alt_ic_isr_register
08019658 g     F .text	0000004c alt_avalon_i2c_disable
08048698 g     F .text	00000060 vfwrite
0805670c g     O .rwdata	00000002 OSMemEn
080331a0 g     F .text	000000ac soqinsque
080569ec g     O .bss	00000004 so_evtmap_delete
080030a8 g     F .text	00000034 fwrite
08056716 g     O .rwdata	00000002 OSMutexEn
080569d8 g     O .bss	00000004 h_ireq
0805681c g       *ABS*	00000000 _edata
0803f718 g     F .text	0000059c ip_fragment
08025230 g     F .text	00000140 iniche_devices_init
0805f424 g     O .bss	00000028 tcp_saveti
08028700 g     F .text	000000d8 con_page
0805f8b0 g       *ABS*	00000000 _end
08032744 g     F .text	00000548 sogetopt
0800111c g     F .text	0000002c AD9648
0803b15c g     F .text	00000068 alt_flash_open_dev
0805689c g     O .bss	00000001 OSIntNesting
080030dc g     F .text	00000008 _getchar_r
0801ec38 g     F .text	00000240 alt_tse_mac_associate_phy
08056300 g     O .rwdata	00000030 nettasks
0802bf98 g     F .text	00000020 pk_get_max_intrsafe_buf_len
0800ce60 g     F .text	00000164 __fputwc
0803fffc g     F .text	000001cc iproute
0802e6a8 g     F .text	000000f0 np_stripoptions
080569f0 g     O .bss	00000001 so_evtmap
0801b528 g     F .text	000000f4 altera_avalon_jtag_uart_ioctl
08018c88 g     F .text	000001e0 OSTimeDlyResume
08002d4c g     F .text	0000007c SSSCreateTasks
080434b8 g     F .text	000003a4 add_route
08013f5c g     F .text	00000154 OSFlagNameSet
08025ed0 g     F .text	00000090 c_older
08033b90 g     F .text	00000084 sbflush
08046178 g     F .text	00000024 md_fclose
08028ea4 g     F .text	00000030 tk_yield
080196a4 g     F .text	000000b0 alt_avalon_i2c_master_config_get
080184e8 g     F .text	000001b8 OSTaskStkChk
0803b2f0 g     F .text	0000008c alt_ic_irq_disable
080313d0 g     F .text	00000560 sosend
08056712 g     O .rwdata	00000002 OSMemSize
0803fcb4 g     F .text	000000a4 ip_mymach
0800b44c g     F .text	00000080 __swrite
0805692c g     O .bss	00000004 cticks_initialized
080567fc g     O .rwdata	00000004 deflength
080566d8 g     O .rwdata	00000004 __malloc_trim_threshold
0803043c g     F .text	000001fc t_sendto
0800335c g     F .text	00000188 _perror_r
080568a0 g     O .bss	00000004 OSTCBCur
08030aec g     F .text	000001a8 socreate
0804a44c g     F .text	00000034 exit
0805f6bc g     O .bss	00000100 arp_table
0800ce28 g     F .text	00000038 fiprintf
0800d568 g     F .text	00000004 _vfiprintf_r
08056a2c g     O .bss	00000004 icmpdu_hook
08056714 g     O .rwdata	00000002 OSMemTblSize
08008ddc g     F .text	000000a8 _fwalk_reent
08022e38 g     F .text	00000110 alt_msgdma_prefetcher_set_std_list_own_by_hw_bits
0803cbe0 g     F .text	00000024 create_apptasks
080567b0 g     O .rwdata	00000004 tcp_ttl
0800a530 g     F .text	0000022c __mdiff
0803b1c4 g     F .text	00000054 alt_flash_close_dev
0802d358 g     F .text	00000040 ncpfree
0800e510 g     F .text	00000074 .hidden __modsi3
0804a498 g     F .text	00000194 _memalign_r
080568bc g     O .bss	00000004 MaxLnh
0801bfc8 g     F .text	00000050 tse_mac_setGMIImode
080468e4 g     F .text	00000084 inet_ntop
080445d0 g     F .text	00000024 udp_maxalloc
080207a8 g     F .text	000000e4 marvell_cfg_gmii
10000000 g       *ABS*	00000000 __alt_data_end
08000120 g     F .exceptions	00000000 alt_exception
0800843c g     F .text	00000004 __sfp_lock_release
08011e68 g     F .text	00000058 OSInit
080225d8 g     F .text	000000a8 alt_msgdma_construct_extended_mm_to_mm_descriptor
0801ee78 g     F .text	00000128 alt_tse_phy_cfg_pcs
08018888 g     F .text	00000128 OSTaskQuery
0803c558 g     F .text	0000008c icmp_port_du
0805698c g     O .bss	00000004 tcp_iss
08016790 g     F .text	000000a8 OS_QInit
0804a434 g     F .text	0000000c atoi
080567a0 g     O .rwdata	00000004 bigbufsiz
080130e8 g     F .text	00000054 OS_StrLen
080198b4 g     F .text	000000fc alt_avalon_i2c_master_config_speed_set
08038d98 g     F .text	00000078 tcp_putseq
08015328 g     F .text	0000011c OSMemNameSet
0804f33c g     O .rodata	00000101 _ctype_
18002800 g       *ABS*	00000000 __alt_mem_onchip_ram
080337d4 g     F .text	000001dc sbappendaddr
08056a20 g     O .bss	00000004 vfs_total_rw_space
08019b48 g     F .text	000000ec alt_avalon_i2c_cmd_write
08057448 g     O .bss	000000f0 ItfcTable
08010a20 g     F .text	00000054 .hidden __unorddf2
080455b0 g     F .text	00000120 ip_getmoptions
080080c8 g     F .text	00000064 fileno
0805672e g     O .rwdata	00000002 OSTaskProfileEn
080224b8 g     F .text	00000090 alt_msgdma_construct_extended_st_to_mm_descriptor
08044370 g     F .text	000000f4 udpswap
080568a4 g     O .bss	00000004 OSTime
08056968 g     O .bss	00000004 nextslow
08038e84 g     F .text	0000025c tcp_slowtimo
08038abc g     F .text	0000010c tcp_newtcpcb
0803dbc8 g     F .text	0000017c send_via_arp
08029154 g     F .text	000000a4 dhc_init
080413a8 g     F .text	00000058 ip_reasm_find_ire
0805cf30 g     O .bss	00000800 OSTaskIdleStk
08048de0 g     F .text	00000058 isvfile_locked
08010c94 g     F .text	00000038 _exit
08027c2c g     F .text	00000188 bsd_select
0803aae4 g     F .text	00000134 alt_alarm_start
08013e2c g     F .text	00000130 OSFlagNameGet
080445f4 g     F .text	00000044 udp_free
0802c07c g     F .text	000000b8 getq
08048f34 g     F .text	00000024 prep_vfs
08018e68 g     F .text	00000060 OSTimeGet
080567f0 g     O .rwdata	00000004 name
08033dcc g     F .text	00000100 sbdropend
08009048 g     F .text	00000140 __smakebuf_r
0803dd44 g     F .text	0000010c cb_arpent_tmo
0805676c g     O .rwdata	00000008 alt_msgdma_list
08003d70 g     F .text	00000098 strlen
08044efc g     F .text	00000114 IPADDR_TO_NETP
08027ab4 g     F .text	00000034 bsd_inet_ntoa
0800d700 g     F .text	00000014 _init_signal_r
0803c37c g     F .text	00000020 OSTaskSwHook
0803b6d0 g     F .text	00000154 open
0802c2e4 g     F .text	00000200 udp_open
0805d730 g     O .bss	00000b40 OSEventTbl
08033354 g     F .text	00000058 socantsendmore
08056a24 g     O .bss	00000004 vfs_total_dyna_files
0800f89c g     F .text	000000f0 .hidden __gedf2
0803bdf0 g     F .text	00000044 alt_uncached_free
0803ba50 g     F .text	00000030 alt_putchar
0805e270 g     O .bss	00000510 OSTCBTbl
080569c4 g     O .bss	00000004 arpReqsOut
080171d0 g     F .text	00000100 OSSemSet
08056818 g     O .rwdata	00000004 http_root_path
0802add0 g     F .text	00000254 dhc_extract_opts
08040954 g     F .text	00000554 ip_reasm_compute_overlap
0800cc38 g     F .text	00000014 __assert
080210d8 g     F .text	000001e8 alt_qspi_controller_write
0800b624 g     F .text	00000018 __sprint_r
0801be0c g     F .text	00000070 tse_mac_aRxRead
0804a704 g     F .text	0000015c strchr
0805ef3e g     O .bss	00000012 ipreturn
080569e0 g     O .bss	00000004 port_prep
08056384 g     O .rwdata	0000000d tcp_backoff
08032cd8 g     F .text	00000070 soisconnecting
08002670 g     F .text	00000070 SSSInitialTask
08024e48 g     F .text	00000138 allocate_rx_descriptor_chain
080567e4 g     O .rwdata	00000004 alt_priority_mask
08044ac4 g     F .text	000001c0 igmpv2_process_query
08033f5c g     F .text	000001d0 t_select
080169c8 g     F .text	00000250 OSSemDel
0803a9bc g     F .text	00000128 udp4_sockaddr
080568a8 g     O .bss	00000004 OSFlagFreeList
080470ac g     F .text	000001e0 in_pcbconnect
08056980 g     O .bss	00000004 dropline
080569dc g     O .bss	00000004 ire_cticks
0803b268 g     F .text	00000088 alt_ic_irq_enable
080566f4 g     O .rwdata	00000002 OSEventNameSize
08006230 g     F .text	0000001c __vfprintf_internal
08028ab0 g     F .text	00000078 tk_netmain
0804728c g     F .text	0000005c in_pcbdisconnect
080568ac g     O .bss	00000001 OSStatRdy
0805e780 g     O .bss	00000054 OSTCBPrioTbl
0800d660 g     F .text	0000000c _wctomb_r
080112a8 g     F .text	000000c0 __env_lock
0805673a g     O .rwdata	00000002 OSTaskSwHookEn
08056560 g     O .rwdata	00000024 mdio
0801ce7c g     F .text	000000e0 alt_tse_mac_set_speed
08027380 g     F .text	00000120 bsd_accept
08000914 g     F .text	0000035c DiscChanMessage
080567c0 g     O .rwdata	00000004 tcp_recvspace
080100ec g     F .text	00000934 .hidden __subdf3
0804e1c4 g     F .text	00000004 _vfprintf_r
08039f04 g     F .text	00000040 tcpinit
080568dc g     O .bss	00000004 igmp_all_rtrs_group
0802eb58 g     F .text	0000005c rawip_lookup
0803cc80 g     F .text	000000a0 fcntl
08009f04 g     F .text	000000b0 __lo0bits
080339b0 g     F .text	000001e0 sbcompress
080567e8 g     O .rwdata	00000008 alt_alarm_list
08038bc8 g     F .text	0000009c tcp_drop
08056702 g     O .rwdata	00000002 OSFlagWidth
0803b004 g     F .text	00000064 _do_ctors
0800d958 g     F .text	00000010 __sigtramp
0801fb48 g     F .text	00000254 alt_tse_phy_set_adv_100
08039140 g     F .text	00000460 tcp_timers
0802646c g     F .text	00000080 if_netnumber
080456d0 g     F .text	00000084 ip_freemoptions
08032c8c g     F .text	0000004c sohasoutofband
0800d5d8 g     F .text	00000088 wcrtomb
08034bd0 g     F .text	00002218 tcp_input
080274a0 g     F .text	00000120 bsd_getpeername
08027ae8 g     F .text	00000144 bsd_recvfrom
080251e8 g     F .text	00000048 close
0805690c g     O .bss	00000004 dsc_bpreplys
08056858 g     O .bss	00000004 alt_envsem
080568b0 g     O .bss	00000004 OSIdleCtrRun
08054e34 g     O .rwdata	0000016c __global_locale
0801ada4 g     F .text	0000004c alt_avalon_i2c_tfr_cmd_fifo_threshold_get
080124c8 g     F .text	00000020 OSVersion
0805674c g     O .rwdata	00000002 OSTmrCfgWheelSize
080189b0 g     F .text	00000070 OS_TaskStkClr
08047644 g     F .text	0000002c set_vfopen_error
0801a044 g     F .text	0000013c alt_avalon_i2c_master_rx
08056726 g     O .rwdata	00000002 OSTaskCreateEn
08024b90 g     F .text	000002b8 tse_msgdma_read_init
0801cc5c g     F .text	0000006c alt_tse_get_system_index
08056360 g     O .rwdata	00000018 rawip_protosw
08033440 g     F .text	0000006c sbwait
08012a8c g     F .text	0000006c OS_EventWaitListInit
0802b024 g     F .text	000004c0 dhc_second
080569ac g     O .bss	00000004 port_1s_callout
0800cfe8 g     F .text	00000078 fputwc
0800d914 g     F .text	00000010 raise
0803c428 g     F .text	00000020 OSTaskIdleHook
0804a63c g     F .text	00000010 free
08008440 g     F .text	00000004 __sinit_lock_acquire
080568b8 g     O .bss	00000001 number_of_tse_mac
08009c30 g     F .text	00000138 __multadd
080186a0 g     F .text	000001e8 OSTaskSuspend
08009c0c g     F .text	00000024 _Bfree
0801bcb4 g     F .text	00000030 no_printf
08032fa8 g     F .text	000001f8 sonewconn
08049330 g     F .text	00000adc icmprcv
0802d428 g     F .text	000000d4 pffindproto
0801313c g     F .text	00000060 OS_TaskIdle
08056752 g     O .rwdata	00000002 OSTmrTblSize
08016630 g     F .text	00000160 OSQQuery



Disassembly of section .exceptions:

08000120 <alt_exception>:

#else /* ALT_EXCEPTION_STACK disabled */
        /* 
         * Reserve space on normal stack for registers about to be pushed.
         */
        addi  sp, sp, -76
 8000120:	deffed04 	addi	sp,sp,-76
         * documentation for details).
         *
         * Leave a gap in the stack frame at 4(sp) for the muldiv handler to
         * store zero into.
         */
        stw   ra,  0(sp)
 8000124:	dfc00015 	stw	ra,0(sp)
        stw   r1,   8(sp)
 8000128:	d8400215 	stw	at,8(sp)
        stw   r2,  12(sp)
 800012c:	d8800315 	stw	r2,12(sp)
        stw   r3,  16(sp)
 8000130:	d8c00415 	stw	r3,16(sp)
        stw   r4,  20(sp)
 8000134:	d9000515 	stw	r4,20(sp)
        stw   r5,  24(sp)
 8000138:	d9400615 	stw	r5,24(sp)
        stw   r6,  28(sp)
 800013c:	d9800715 	stw	r6,28(sp)
        stw   r7,  32(sp)
 8000140:	d9c00815 	stw	r7,32(sp)
        rdctl r5, estatus   /* Read early to avoid usage stall */
 8000144:	000b307a 	rdctl	r5,estatus
        stw   r8,  36(sp)
 8000148:	da000915 	stw	r8,36(sp)
        stw   r9,  40(sp)
 800014c:	da400a15 	stw	r9,40(sp)
        stw   r10, 44(sp)
 8000150:	da800b15 	stw	r10,44(sp)
        stw   r11, 48(sp)
 8000154:	dac00c15 	stw	r11,48(sp)
        stw   r12, 52(sp)
 8000158:	db000d15 	stw	r12,52(sp)
        stw   r13, 56(sp)
 800015c:	db400e15 	stw	r13,56(sp)
        stw   r14, 60(sp)
 8000160:	db800f15 	stw	r14,60(sp)
        stw   r15, 64(sp)
 8000164:	dbc01015 	stw	r15,64(sp)
        /*
         * ea-4 contains the address of the instruction being executed
         * when the exception occured. For interrupt exceptions, we will
         * will be re-issue the isntruction. Store it in 72(sp)
         */
        stw   r5,  68(sp)  /* estatus */
 8000168:	d9401115 	stw	r5,68(sp)
        addi  r15, ea, -4  /* instruction that caused exception */
 800016c:	ebffff04 	addi	r15,ea,-4
        stw   r15,  72(sp)
 8000170:	dbc01215 	stw	r15,72(sp)
#else
        /*
         * Test to see if the exception was a software exception or caused 
         * by an external interrupt, and vector accordingly.
         */
        rdctl r4, ipending
 8000174:	0009313a 	rdctl	r4,ipending
        andi  r2, r5, 1
 8000178:	2880004c 	andi	r2,r5,1
        beq   r2, zero, .Lnot_irq
 800017c:	10000326 	beq	r2,zero,800018c <alt_exception+0x6c>
        beq   r4, zero, .Lnot_irq
 8000180:	20000226 	beq	r4,zero,800018c <alt_exception+0x6c>
        /*
         * Now that all necessary registers have been preserved, call 
         * alt_irq_handler() to process the interrupts.
         */

        call alt_irq_handler
 8000184:	80001fc0 	call	80001fc <alt_irq_handler>

        .section .exceptions.irqreturn, "xa"

        br    .Lexception_exit
 8000188:	00000706 	br	80001a8 <alt_exception+0x88>
         * upon completion, so we write ea (address of instruction *after*
         * the one where the exception occured) into 72(sp). The actual
         * instruction that caused the exception is written in r2, which these
         * handlers will utilize.
         */
        stw ea, 72(sp) /* EA is PC+4 so will skip over instruction causing exception */
 800018c:	df401215 	stw	ea,72(sp)
.Lunknown_16bit:
        addi.n r4, r4, 2 /* Need PC+2 to skip over instruction causing exception */
        stw r4, 72(sp)

#else /* CDX is not Enabled and all instructions are 32bits */
        ldw r2, -4(ea) /* Instruction value that caused exception */
 8000190:	e8bfff17 	ldw	r2,-4(ea)
         * debugger is present) or go into an infinite loop since the
         * handling behavior is undefined; in that case we will not return here.
         */

        /* Load exception-causing address as first argument (r4) */
        addi   r4, ea, -4
 8000194:	e93fff04 	addi	r4,ea,-4

        /* Call the instruction-exception entry */
        call   alt_instruction_exception_entry
 8000198:	80002c40 	call	80002c4 <alt_instruction_exception_entry>
         * instruction
         *
         * Return code was 0: Skip. The instruction after the exception is
         * already stored in 72(sp).
         */
        bne   r2, r0, .Lexception_exit
 800019c:	1000021e 	bne	r2,zero,80001a8 <alt_exception+0x88>

        /*
         * Otherwise, modify 72(sp) to re-issue the instruction that caused the
         * exception.
         */
        addi  r15, ea, -4  /* instruction that caused exception */
 80001a0:	ebffff04 	addi	r15,ea,-4
        stw   r15,  72(sp)
 80001a4:	dbc01215 	stw	r15,72(sp)
        /* 
         * Restore the saved registers, so that all general purpose registers 
         * have been restored to their state at the time the interrupt occured.
         */

        ldw   r5,  68(sp)
 80001a8:	d9401117 	ldw	r5,68(sp)
        ldw   ea,  72(sp)  /* This becomes the PC once eret is executed */
 80001ac:	df401217 	ldw	ea,72(sp)
        ldw   ra,   0(sp)
 80001b0:	dfc00017 	ldw	ra,0(sp)

        wrctl estatus, r5
 80001b4:	2801707a 	wrctl	estatus,r5

        ldw   r1,   8(sp)
 80001b8:	d8400217 	ldw	at,8(sp)
        ldw   r2,  12(sp)
 80001bc:	d8800317 	ldw	r2,12(sp)
        ldw   r3,  16(sp)
 80001c0:	d8c00417 	ldw	r3,16(sp)
        ldw   r4,  20(sp)
 80001c4:	d9000517 	ldw	r4,20(sp)
        ldw   r5,  24(sp)
 80001c8:	d9400617 	ldw	r5,24(sp)
        ldw   r6,  28(sp)
 80001cc:	d9800717 	ldw	r6,28(sp)
        ldw   r7,  32(sp)
 80001d0:	d9c00817 	ldw	r7,32(sp)

#if defined(ALT_EXCEPTION_STACK) && defined(ALT_STACK_CHECK)
        ldw   et, %gprel(alt_exception_old_stack_limit)(gp)
#endif

        ldw   r8,  36(sp)
 80001d4:	da000917 	ldw	r8,36(sp)
        ldw   r9,  40(sp)
 80001d8:	da400a17 	ldw	r9,40(sp)
        ldw   r10, 44(sp)
 80001dc:	da800b17 	ldw	r10,44(sp)
        ldw   r11, 48(sp)
 80001e0:	dac00c17 	ldw	r11,48(sp)
        ldw   r12, 52(sp)
 80001e4:	db000d17 	ldw	r12,52(sp)
        ldw   r13, 56(sp)
 80001e8:	db400e17 	ldw	r13,56(sp)
        ldw   r14, 60(sp)
 80001ec:	db800f17 	ldw	r14,60(sp)
        ldw   r15, 64(sp)
 80001f0:	dbc01017 	ldw	r15,64(sp)
        stw   et, %gprel(alt_stack_limit_value)(gp)
        stw   zero, %gprel(alt_exception_old_stack_limit)(gp)
#endif /* ALT_STACK_CHECK */
        ldw   sp,  76(sp)
#else /* ALT_EXCEPTION_STACK disabled */
        addi  sp, sp, 76
 80001f4:	dec01304 	addi	sp,sp,76

        /*
         * Return to the interrupted instruction.
         */

        eret
 80001f8:	ef80083a 	eret

080001fc <alt_irq_handler>:
 * instruction is present if the macro ALT_CI_INTERRUPT_VECTOR defined.
 */

void alt_irq_handler (void) __attribute__ ((section (".exceptions")));
void alt_irq_handler (void)
{
 80001fc:	defff904 	addi	sp,sp,-28
 8000200:	dfc00615 	stw	ra,24(sp)
 8000204:	df000515 	stw	fp,20(sp)
 8000208:	df000504 	addi	fp,sp,20
  
  /*
   * Notify the operating system that we are at interrupt level.
   */ 
  
  ALT_OS_INT_ENTER();
 800020c:	8011ec00 	call	8011ec0 <OSIntEnter>
#ifndef NIOS2_EIC_PRESENT
static ALT_INLINE alt_u32 ALT_ALWAYS_INLINE alt_irq_pending (void)
{
  alt_u32 active;

  NIOS2_READ_IPENDING (active);
 8000210:	0005313a 	rdctl	r2,ipending
 8000214:	e0bffc15 	stw	r2,-16(fp)

  return active;
 8000218:	e0bffc17 	ldw	r2,-16(fp)
   * Consider the case where the high priority interupt is asserted during
   * the interrupt entry sequence for a lower priority interrupt to see why
   * this is the case.
   */

  active = alt_irq_pending ();
 800021c:	e0bfff15 	stw	r2,-4(fp)

  do
  {
    i = 0;
 8000220:	e03ffd15 	stw	zero,-12(fp)
    mask = 1;
 8000224:	00800044 	movi	r2,1
 8000228:	e0bffe15 	stw	r2,-8(fp)
     * called to clear the interrupt condition.
     */

    do
    {
      if (active & mask)
 800022c:	e0ffff17 	ldw	r3,-4(fp)
 8000230:	e0bffe17 	ldw	r2,-8(fp)
 8000234:	1884703a 	and	r2,r3,r2
 8000238:	10001126 	beq	r2,zero,8000280 <alt_irq_handler+0x84>
      { 
#ifdef ALT_ENHANCED_INTERRUPT_API_PRESENT
        alt_irq[i].handler(alt_irq[i].context); 
 800023c:	e0bffd17 	ldw	r2,-12(fp)
 8000240:	100690fa 	slli	r3,r2,3
 8000244:	008201b4 	movhi	r2,2054
 8000248:	1885883a 	add	r2,r3,r2
 800024c:	10fd5617 	ldw	r3,-2728(r2)
 8000250:	e0bffd17 	ldw	r2,-12(fp)
 8000254:	100890fa 	slli	r4,r2,3
 8000258:	008201b4 	movhi	r2,2054
 800025c:	2085883a 	add	r2,r4,r2
 8000260:	10bd5717 	ldw	r2,-2724(r2)
 8000264:	1009883a 	mov	r4,r2
 8000268:	183ee83a 	callr	r3
#else
        alt_irq[i].handler(alt_irq[i].context, i); 
#endif
        break;
 800026c:	0001883a 	nop
  NIOS2_READ_IPENDING (active);
 8000270:	0005313a 	rdctl	r2,ipending
 8000274:	e0bffb15 	stw	r2,-20(fp)
  return active;
 8000278:	e0bffb17 	ldw	r2,-20(fp)
 800027c:	00000706 	br	800029c <alt_irq_handler+0xa0>
      }
      mask <<= 1;
 8000280:	e0bffe17 	ldw	r2,-8(fp)
 8000284:	1085883a 	add	r2,r2,r2
 8000288:	e0bffe15 	stw	r2,-8(fp)
      i++;
 800028c:	e0bffd17 	ldw	r2,-12(fp)
 8000290:	10800044 	addi	r2,r2,1
 8000294:	e0bffd15 	stw	r2,-12(fp)
      if (active & mask)
 8000298:	003fe406 	br	800022c <alt_irq_handler+0x30>

    } while (1);

    active = alt_irq_pending ();
 800029c:	e0bfff15 	stw	r2,-4(fp)
    
  } while (active);
 80002a0:	e0bfff17 	ldw	r2,-4(fp)
 80002a4:	103fde1e 	bne	r2,zero,8000220 <alt_irq_handler+0x24>

  /*
   * Notify the operating system that interrupt processing is complete.
   */ 

  ALT_OS_INT_EXIT();
 80002a8:	8011f0c0 	call	8011f0c <OSIntExit>
}
 80002ac:	0001883a 	nop
 80002b0:	e037883a 	mov	sp,fp
 80002b4:	dfc00117 	ldw	ra,4(sp)
 80002b8:	df000017 	ldw	fp,0(sp)
 80002bc:	dec00204 	addi	sp,sp,8
 80002c0:	f800283a 	ret

080002c4 <alt_instruction_exception_entry>:
 * that handler if it has been registered. Absent a handler, it will
 * break break or hang as discussed below.
 */
int 
alt_instruction_exception_entry (alt_u32 exception_pc)
{
 80002c4:	defffb04 	addi	sp,sp,-20
 80002c8:	dfc00415 	stw	ra,16(sp)
 80002cc:	df000315 	stw	fp,12(sp)
 80002d0:	df000304 	addi	fp,sp,12
 80002d4:	e13ffd15 	stw	r4,-12(fp)
 * NIOS2_EXCEPTION_CAUSE_NOT_PRESENT. Your handling routine should
 * check the validity of the cause argument before proceeding.
 */
#ifdef NIOS2_HAS_EXTRA_EXCEPTION_INFO
  /* Get exception cause & "badaddr" */
  NIOS2_READ_EXCEPTION(cause);
 80002d8:	000531fa 	rdctl	r2,exception
 80002dc:	e0bfff15 	stw	r2,-4(fp)
  cause = ( (cause & NIOS2_EXCEPTION_REG_CAUSE_MASK) >>
 80002e0:	e0bfff17 	ldw	r2,-4(fp)
 80002e4:	1004d0ba 	srli	r2,r2,2
 80002e8:	108007cc 	andi	r2,r2,31
 80002ec:	e0bfff15 	stw	r2,-4(fp)
              NIOS2_EXCEPTION_REG_CAUSE_OFST );

  NIOS2_READ_BADADDR(badaddr);
 80002f0:	0005333a 	rdctl	r2,badaddr
 80002f4:	e0bffe15 	stw	r2,-8(fp)
#else
  cause = NIOS2_EXCEPTION_CAUSE_NOT_PRESENT;
  badaddr = 0;
#endif /* NIOS2_HAS_EXTRA_EXCEPTION_INFO */

  if(alt_instruction_exception_handler) {
 80002f8:	d0a0d717 	ldw	r2,-31908(gp)
 80002fc:	10000726 	beq	r2,zero,800031c <alt_instruction_exception_entry+0x58>
     * Call handler. Its return value indicates whether the exception-causing
     * instruction should be re-issued. The code that called us,
     * alt_eceptions_entry.S, will look at this value and adjust the ea
     * register as necessary
     */
    return alt_instruction_exception_handler(cause, exception_pc, badaddr);
 8000300:	d0a0d717 	ldw	r2,-31908(gp)
 8000304:	e0ffff17 	ldw	r3,-4(fp)
 8000308:	e1bffe17 	ldw	r6,-8(fp)
 800030c:	e17ffd17 	ldw	r5,-12(fp)
 8000310:	1809883a 	mov	r4,r3
 8000314:	103ee83a 	callr	r2
 8000318:	00000206 	br	8000324 <alt_instruction_exception_entry+0x60>
   *    (a peripheral which negates its interrupt output before its
   *    interrupt handler has been executed will cause spurious interrupts)
   */
  else {
#ifdef NIOS2_HAS_DEBUG_STUB
    NIOS2_BREAK();
 800031c:	003da03a 	break	0
      ;
#endif /* NIOS2_HAS_DEBUG_STUB */
  }

  /* We should not get here. Remove compiler warning. */
  return NIOS2_EXCEPTION_RETURN_REISSUE_INST;
 8000320:	0005883a 	mov	r2,zero
}
 8000324:	e037883a 	mov	sp,fp
 8000328:	dfc00117 	ldw	ra,4(sp)
 800032c:	df000017 	ldw	fp,0(sp)
 8000330:	dec00204 	addi	sp,sp,8
 8000334:	f800283a 	ret

Disassembly of section .text:

08000338 <_start>:

    /* Assume the data cache size is always a power of two. */
#if NIOS2_DCACHE_SIZE > 0x8000
    movhi r2, %hi(NIOS2_DCACHE_SIZE)
#else
    movui r2, NIOS2_DCACHE_SIZE
 8000338:	00a00014 	movui	r2,32768
#endif

0:
    initd 0(r2)
 800033c:	10000033 	initd	0(r2)
#ifdef NIOS2_ECC_PRESENT
    addi r2, r2, -4
#else
    addi r2, r2, -NIOS2_DCACHE_LINE_SIZE
 8000340:	10bff804 	addi	r2,r2,-32
#endif
    bgt r2, zero, 0b
 8000344:	00bffd16 	blt	zero,r2,800033c <_start+0x4>

    /*
     * Now that the caches are initialized, set up the stack pointer and global pointer.
     * The values provided by the linker are assumed to be correctly aligned.
     */
    movhi sp, %hi(__alt_stack_pointer)
 8000348:	06c40034 	movhi	sp,4096
    ori sp, sp, %lo(__alt_stack_pointer)
 800034c:	dec00014 	ori	sp,sp,0
    movhi gp, %hi(_gp)
 8000350:	06820174 	movhi	gp,2053
    ori gp, gp, %lo(_gp)
 8000354:	d6b9b314 	ori	gp,gp,59084
 */
#ifndef ALT_SIM_OPTIMIZE
    /* Log that the BSS is about to be cleared. */
    ALT_LOG_PUTS(alt_log_msg_bss)

    movhi r2, %hi(__bss_start)
 8000358:	00820174 	movhi	r2,2053
    ori r2, r2, %lo(__bss_start)
 800035c:	109a0714 	ori	r2,r2,26652

    movhi r3, %hi(__bss_end)
 8000360:	00c20174 	movhi	r3,2053
    ori r3, r3, %lo(__bss_end)
 8000364:	18fe2c14 	ori	r3,r3,63664

    beq r2, r3, 1f
 8000368:	10c00326 	beq	r2,r3,8000378 <_start+0x40>

0:
    stw zero, (r2)
 800036c:	10000015 	stw	zero,0(r2)
    addi r2, r2, 4
 8000370:	10800104 	addi	r2,r2,4
    bltu r2, r3, 0b
 8000374:	10fffd36 	bltu	r2,r3,800036c <_start+0x34>

    /* Log that alt_main is about to be called. */
    ALT_LOG_PUTS(alt_log_msg_alt_main)

    /* Call the C entry point. It should never return. */
    call alt_main
 8000378:	80111300 	call	8011130 <alt_main>

0800037c <alt_after_alt_main>:

    /* Wait in infinite loop in case alt_main does return. */
alt_after_alt_main:
    br alt_after_alt_main
 800037c:	003fff06 	br	800037c <alt_after_alt_main>

08000380 <initChan>:
 *
 * NOTE: fd = 0 could be stdin or stdout ?
 */

void initChan()
{
 8000380:	defffe04 	addi	sp,sp,-8
 8000384:	df000115 	stw	fp,4(sp)
 8000388:	df000104 	addi	fp,sp,4
	for (int i=0; i < MAXUDPCHAN; i++)
 800038c:	e03fff15 	stw	zero,-4(fp)
 8000390:	00000f06 	br	80003d0 <initChan+0x50>
	{
		Connections[i].fd = -1;
 8000394:	e0bfff17 	ldw	r2,-4(fp)
 8000398:	11000b24 	muli	r4,r2,44
 800039c:	00ffffc4 	movi	r3,-1
 80003a0:	00820174 	movhi	r2,2053
 80003a4:	2085883a 	add	r2,r4,r2
 80003a8:	10da8c15 	stw	r3,27184(r2)
		Connections[i].chantype = 'I';	// Inactive
 80003ac:	e0bfff17 	ldw	r2,-4(fp)
 80003b0:	11000b24 	muli	r4,r2,44
 80003b4:	00c01244 	movi	r3,73
 80003b8:	00820174 	movhi	r2,2053
 80003bc:	2085883a 	add	r2,r4,r2
 80003c0:	10da8d05 	stb	r3,27188(r2)
	for (int i=0; i < MAXUDPCHAN; i++)
 80003c4:	e0bfff17 	ldw	r2,-4(fp)
 80003c8:	10800044 	addi	r2,r2,1
 80003cc:	e0bfff15 	stw	r2,-4(fp)
 80003d0:	e0bfff17 	ldw	r2,-4(fp)
 80003d4:	10800550 	cmplti	r2,r2,21
 80003d8:	103fee1e 	bne	r2,zero,8000394 <initChan+0x14>
	}
};
 80003dc:	0001883a 	nop
 80003e0:	0001883a 	nop
 80003e4:	e037883a 	mov	sp,fp
 80003e8:	df000017 	ldw	fp,0(sp)
 80003ec:	dec00104 	addi	sp,sp,4
 80003f0:	f800283a 	ret

080003f4 <addChan>:

int addChan(struct UDPCHAN * Conn)
{
 80003f4:	defffc04 	addi	sp,sp,-16
 80003f8:	dfc00315 	stw	ra,12(sp)
 80003fc:	df000215 	stw	fp,8(sp)
 8000400:	df000204 	addi	fp,sp,8
 8000404:	e13ffe15 	stw	r4,-8(fp)
	if (Conn->fd < 0)
 8000408:	e0bffe17 	ldw	r2,-8(fp)
 800040c:	10800017 	ldw	r2,0(r2)
 8000410:	1000020e 	bge	r2,zero,800041c <addChan+0x28>
		return(-2);	// bad fd value to add.
 8000414:	00bfff84 	movi	r2,-2
 8000418:	00001b06 	br	8000488 <addChan+0x94>

	for (int i=0; i < MAXUDPCHAN; i++)
 800041c:	e03fff15 	stw	zero,-4(fp)
 8000420:	00001506 	br	8000478 <addChan+0x84>
	{
		if (Connections[i].fd == -1)
 8000424:	e0bfff17 	ldw	r2,-4(fp)
 8000428:	10c00b24 	muli	r3,r2,44
 800042c:	00820174 	movhi	r2,2053
 8000430:	1885883a 	add	r2,r3,r2
 8000434:	109a8c17 	ldw	r2,27184(r2)
 8000438:	10bfffd8 	cmpnei	r2,r2,-1
 800043c:	10000b1e 	bne	r2,zero,800046c <addChan+0x78>
		{
			memcpy(&Connections[i], Conn, sizeof(struct UDPCHAN));
 8000440:	e0bfff17 	ldw	r2,-4(fp)
 8000444:	10c00b24 	muli	r3,r2,44
 8000448:	00820174 	movhi	r2,2053
 800044c:	109a8c04 	addi	r2,r2,27184
 8000450:	1885883a 	add	r2,r3,r2
 8000454:	01800b04 	movi	r6,44
 8000458:	e17ffe17 	ldw	r5,-8(fp)
 800045c:	1009883a 	mov	r4,r2
 8000460:	800316c0 	call	800316c <memcpy>
			return(i);
 8000464:	e0bfff17 	ldw	r2,-4(fp)
 8000468:	00000706 	br	8000488 <addChan+0x94>
	for (int i=0; i < MAXUDPCHAN; i++)
 800046c:	e0bfff17 	ldw	r2,-4(fp)
 8000470:	10800044 	addi	r2,r2,1
 8000474:	e0bfff15 	stw	r2,-4(fp)
 8000478:	e0bfff17 	ldw	r2,-4(fp)
 800047c:	10800550 	cmplti	r2,r2,21
 8000480:	103fe81e 	bne	r2,zero,8000424 <addChan+0x30>
		}
	}

	return(-1);  // out of space in the table
 8000484:	00bfffc4 	movi	r2,-1
};
 8000488:	e037883a 	mov	sp,fp
 800048c:	dfc00117 	ldw	ra,4(sp)
 8000490:	df000017 	ldw	fp,0(sp)
 8000494:	dec00204 	addi	sp,sp,8
 8000498:	f800283a 	ret

0800049c <delChan>:

int delChan(struct UDPCHAN * Conn)
{
 800049c:	defffd04 	addi	sp,sp,-12
 80004a0:	df000215 	stw	fp,8(sp)
 80004a4:	df000204 	addi	fp,sp,8
 80004a8:	e13ffe15 	stw	r4,-8(fp)
	if (Conn->fd < 0)
 80004ac:	e0bffe17 	ldw	r2,-8(fp)
 80004b0:	10800017 	ldw	r2,0(r2)
 80004b4:	1000020e 	bge	r2,zero,80004c0 <delChan+0x24>
		return(-2);	// bad fd value to delete.
 80004b8:	00bfff84 	movi	r2,-2
 80004bc:	00001f06 	br	800053c <delChan+0xa0>

	for (int i=0; i < MAXUDPCHAN; i++)
 80004c0:	e03fff15 	stw	zero,-4(fp)
 80004c4:	00001906 	br	800052c <delChan+0x90>
	{
		if (Connections[i].fd == Conn->fd)
 80004c8:	e0bfff17 	ldw	r2,-4(fp)
 80004cc:	10c00b24 	muli	r3,r2,44
 80004d0:	00820174 	movhi	r2,2053
 80004d4:	1885883a 	add	r2,r3,r2
 80004d8:	10da8c17 	ldw	r3,27184(r2)
 80004dc:	e0bffe17 	ldw	r2,-8(fp)
 80004e0:	10800017 	ldw	r2,0(r2)
 80004e4:	18800e1e 	bne	r3,r2,8000520 <delChan+0x84>
		{
			Connections[i].fd = -1;
 80004e8:	e0bfff17 	ldw	r2,-4(fp)
 80004ec:	11000b24 	muli	r4,r2,44
 80004f0:	00ffffc4 	movi	r3,-1
 80004f4:	00820174 	movhi	r2,2053
 80004f8:	2085883a 	add	r2,r4,r2
 80004fc:	10da8c15 	stw	r3,27184(r2)
			Connections[i].chantype = 'I';
 8000500:	e0bfff17 	ldw	r2,-4(fp)
 8000504:	11000b24 	muli	r4,r2,44
 8000508:	00c01244 	movi	r3,73
 800050c:	00820174 	movhi	r2,2053
 8000510:	2085883a 	add	r2,r4,r2
 8000514:	10da8d05 	stb	r3,27188(r2)
			return(i);
 8000518:	e0bfff17 	ldw	r2,-4(fp)
 800051c:	00000706 	br	800053c <delChan+0xa0>
	for (int i=0; i < MAXUDPCHAN; i++)
 8000520:	e0bfff17 	ldw	r2,-4(fp)
 8000524:	10800044 	addi	r2,r2,1
 8000528:	e0bfff15 	stw	r2,-4(fp)
 800052c:	e0bfff17 	ldw	r2,-4(fp)
 8000530:	10800550 	cmplti	r2,r2,21
 8000534:	103fe41e 	bne	r2,zero,80004c8 <delChan+0x2c>
		}
	}

	return(-1);  // didn't find in the table
 8000538:	00bfffc4 	movi	r2,-1
};
 800053c:	e037883a 	mov	sp,fp
 8000540:	df000017 	ldw	fp,0(sp)
 8000544:	dec00104 	addi	sp,sp,4
 8000548:	f800283a 	ret

0800054c <findfdChan>:

int findfdChan(int fd)
{
 800054c:	defffd04 	addi	sp,sp,-12
 8000550:	df000215 	stw	fp,8(sp)
 8000554:	df000204 	addi	fp,sp,8
 8000558:	e13ffe15 	stw	r4,-8(fp)
	if (fd < 0)
 800055c:	e0bffe17 	ldw	r2,-8(fp)
 8000560:	1000020e 	bge	r2,zero,800056c <findfdChan+0x20>
		return(-2);	// bad fd value to search for.
 8000564:	00bfff84 	movi	r2,-2
 8000568:	00001206 	br	80005b4 <findfdChan+0x68>

	for (int i=0; i < MAXUDPCHAN; i++)
 800056c:	e03fff15 	stw	zero,-4(fp)
 8000570:	00000c06 	br	80005a4 <findfdChan+0x58>
	{

		if (Connections[i].fd == fd)
 8000574:	e0bfff17 	ldw	r2,-4(fp)
 8000578:	10c00b24 	muli	r3,r2,44
 800057c:	00820174 	movhi	r2,2053
 8000580:	1885883a 	add	r2,r3,r2
 8000584:	109a8c17 	ldw	r2,27184(r2)
 8000588:	e0fffe17 	ldw	r3,-8(fp)
 800058c:	1880021e 	bne	r3,r2,8000598 <findfdChan+0x4c>
			return(i);  // index of the matching connection
 8000590:	e0bfff17 	ldw	r2,-4(fp)
 8000594:	00000706 	br	80005b4 <findfdChan+0x68>
	for (int i=0; i < MAXUDPCHAN; i++)
 8000598:	e0bfff17 	ldw	r2,-4(fp)
 800059c:	10800044 	addi	r2,r2,1
 80005a0:	e0bfff15 	stw	r2,-4(fp)
 80005a4:	e0bfff17 	ldw	r2,-4(fp)
 80005a8:	10800550 	cmplti	r2,r2,21
 80005ac:	103ff11e 	bne	r2,zero,8000574 <findfdChan+0x28>
	}

	return(-1);  // didn't find in the table
 80005b0:	00bfffc4 	movi	r2,-1
};
 80005b4:	e037883a 	mov	sp,fp
 80005b8:	df000017 	ldw	fp,0(sp)
 80005bc:	dec00104 	addi	sp,sp,4
 80005c0:	f800283a 	ret

080005c4 <findExistingChan>:

int findExistingChan(char chantype, struct sockaddr_in * client)
{
 80005c4:	defffb04 	addi	sp,sp,-20
 80005c8:	dfc00415 	stw	ra,16(sp)
 80005cc:	df000315 	stw	fp,12(sp)
 80005d0:	df000304 	addi	fp,sp,12
 80005d4:	2005883a 	mov	r2,r4
 80005d8:	e17ffd15 	stw	r5,-12(fp)
 80005dc:	e0bffe05 	stb	r2,-8(fp)
	// See if we already have a channel to the client IP

	for (int i=0; i < MAXUDPCHAN; i++)
 80005e0:	e03fff15 	stw	zero,-4(fp)
 80005e4:	00001c06 	br	8000658 <findExistingChan+0x94>
	{
		if ((Connections[i].chantype == chantype)      &&
 80005e8:	e0bfff17 	ldw	r2,-4(fp)
 80005ec:	10c00b24 	muli	r3,r2,44
 80005f0:	00820174 	movhi	r2,2053
 80005f4:	1885883a 	add	r2,r3,r2
 80005f8:	109a8d03 	ldbu	r2,27188(r2)
 80005fc:	e0fffe07 	ldb	r3,-8(fp)
 8000600:	10803fcc 	andi	r2,r2,255
 8000604:	1080201c 	xori	r2,r2,128
 8000608:	10bfe004 	addi	r2,r2,-128
 800060c:	18800f1e 	bne	r3,r2,800064c <findExistingChan+0x88>
		   (memcmp(&(Connections[i].client_ip.sin_addr), &(client->sin_addr), sizeof(struct in_addr) ) == 0))
 8000610:	e0bfff17 	ldw	r2,-4(fp)
 8000614:	10800b24 	muli	r2,r2,44
 8000618:	10c00704 	addi	r3,r2,28
 800061c:	00820174 	movhi	r2,2053
 8000620:	109a8c04 	addi	r2,r2,27184
 8000624:	1887883a 	add	r3,r3,r2
 8000628:	e0bffd17 	ldw	r2,-12(fp)
 800062c:	10800104 	addi	r2,r2,4
 8000630:	01800104 	movi	r6,4
 8000634:	100b883a 	mov	r5,r2
 8000638:	1809883a 	mov	r4,r3
 800063c:	80030f40 	call	80030f4 <memcmp>
		if ((Connections[i].chantype == chantype)      &&
 8000640:	1000021e 	bne	r2,zero,800064c <findExistingChan+0x88>
		{
			return(i);	// have existing channel
 8000644:	e0bfff17 	ldw	r2,-4(fp)
 8000648:	00000706 	br	8000668 <findExistingChan+0xa4>
	for (int i=0; i < MAXUDPCHAN; i++)
 800064c:	e0bfff17 	ldw	r2,-4(fp)
 8000650:	10800044 	addi	r2,r2,1
 8000654:	e0bfff15 	stw	r2,-4(fp)
 8000658:	e0bfff17 	ldw	r2,-4(fp)
 800065c:	10800550 	cmplti	r2,r2,21
 8000660:	103fe11e 	bne	r2,zero,80005e8 <findExistingChan+0x24>
		}
	}

	return(-1);		// didn't find in the table
 8000664:	00bfffc4 	movi	r2,-1

}
 8000668:	e037883a 	mov	sp,fp
 800066c:	dfc00117 	ldw	ra,4(sp)
 8000670:	df000017 	ldw	fp,0(sp)
 8000674:	dec00204 	addi	sp,sp,8
 8000678:	f800283a 	ret

0800067c <buildaddChan>:

int buildaddChan(int fd, char type, struct sockaddr_in * host, struct sockaddr_in * client)
{
 800067c:	deffef04 	addi	sp,sp,-68
 8000680:	dfc01015 	stw	ra,64(sp)
 8000684:	df000f15 	stw	fp,60(sp)
 8000688:	df000f04 	addi	fp,sp,60
 800068c:	e13ff415 	stw	r4,-48(fp)
 8000690:	2805883a 	mov	r2,r5
 8000694:	e1bff215 	stw	r6,-56(fp)
 8000698:	e1fff115 	stw	r7,-60(fp)
 800069c:	e0bff305 	stb	r2,-52(fp)
	struct UDPCHAN conn;

	if (fd < 0)
 80006a0:	e0bff417 	ldw	r2,-48(fp)
 80006a4:	1000020e 	bge	r2,zero,80006b0 <buildaddChan+0x34>
		return(-2);	// bad fd value
 80006a8:	00bfff84 	movi	r2,-2
 80006ac:	00001306 	br	80006fc <buildaddChan+0x80>

	conn.fd = fd;
 80006b0:	e0bff417 	ldw	r2,-48(fp)
 80006b4:	e0bff515 	stw	r2,-44(fp)
	conn.chantype = type;
 80006b8:	e0bff303 	ldbu	r2,-52(fp)
 80006bc:	e0bff605 	stb	r2,-40(fp)
	memcpy(&conn.host_ip, host, sizeof(struct sockaddr_in));
 80006c0:	e0bff504 	addi	r2,fp,-44
 80006c4:	10800204 	addi	r2,r2,8
 80006c8:	01800404 	movi	r6,16
 80006cc:	e17ff217 	ldw	r5,-56(fp)
 80006d0:	1009883a 	mov	r4,r2
 80006d4:	800316c0 	call	800316c <memcpy>
	memcpy(&conn.client_ip, client, sizeof(struct sockaddr_in));
 80006d8:	e0bff504 	addi	r2,fp,-44
 80006dc:	10800604 	addi	r2,r2,24
 80006e0:	01800404 	movi	r6,16
 80006e4:	e17ff117 	ldw	r5,-60(fp)
 80006e8:	1009883a 	mov	r4,r2
 80006ec:	800316c0 	call	800316c <memcpy>

	return addChan(&conn);
 80006f0:	e0bff504 	addi	r2,fp,-44
 80006f4:	1009883a 	mov	r4,r2
 80006f8:	80003f40 	call	80003f4 <addChan>
};
 80006fc:	e037883a 	mov	sp,fp
 8000700:	dfc00117 	ldw	ra,4(sp)
 8000704:	df000017 	ldw	fp,0(sp)
 8000708:	dec00204 	addi	sp,sp,8
 800070c:	f800283a 	ret

08000710 <allListeners>:

int allListeners(int * theList)			// return array of active channels to listen for
{
 8000710:	defffc04 	addi	sp,sp,-16
 8000714:	df000315 	stw	fp,12(sp)
 8000718:	df000304 	addi	fp,sp,12
 800071c:	e13ffd15 	stw	r4,-12(fp)
	int count = 0;
 8000720:	e03fff15 	stw	zero,-4(fp)

	//memset(theList, -1, MAXUDPCHAN);	// clear the returned list

	for(int i=0; i<MAXUDPCHAN; i++)
 8000724:	e03ffe15 	stw	zero,-8(fp)
 8000728:	00001506 	br	8000780 <allListeners+0x70>
		if (Connections[i].fd > 0)		// valid fd
 800072c:	e0bffe17 	ldw	r2,-8(fp)
 8000730:	10c00b24 	muli	r3,r2,44
 8000734:	00820174 	movhi	r2,2053
 8000738:	1885883a 	add	r2,r3,r2
 800073c:	109a8c17 	ldw	r2,27184(r2)
 8000740:	00800c0e 	bge	zero,r2,8000774 <allListeners+0x64>
			theList[count++] = Connections[i].fd;
 8000744:	e0bfff17 	ldw	r2,-4(fp)
 8000748:	10c00044 	addi	r3,r2,1
 800074c:	e0ffff15 	stw	r3,-4(fp)
 8000750:	100490ba 	slli	r2,r2,2
 8000754:	e0fffd17 	ldw	r3,-12(fp)
 8000758:	1887883a 	add	r3,r3,r2
 800075c:	e0bffe17 	ldw	r2,-8(fp)
 8000760:	11000b24 	muli	r4,r2,44
 8000764:	00820174 	movhi	r2,2053
 8000768:	2085883a 	add	r2,r4,r2
 800076c:	109a8c17 	ldw	r2,27184(r2)
 8000770:	18800015 	stw	r2,0(r3)
	for(int i=0; i<MAXUDPCHAN; i++)
 8000774:	e0bffe17 	ldw	r2,-8(fp)
 8000778:	10800044 	addi	r2,r2,1
 800077c:	e0bffe15 	stw	r2,-8(fp)
 8000780:	e0bffe17 	ldw	r2,-8(fp)
 8000784:	10800550 	cmplti	r2,r2,21
 8000788:	103fe81e 	bne	r2,zero,800072c <allListeners+0x1c>

	return count;
 800078c:	e0bfff17 	ldw	r2,-4(fp)
};
 8000790:	e037883a 	mov	sp,fp
 8000794:	df000017 	ldw	fp,0(sp)
 8000798:	dec00104 	addi	sp,sp,4
 800079c:	f800283a 	ret

080007a0 <ProcessRxPacket>:
#define MAXLINE 1500
unsigned char buffer[MAXLINE+1];  // room to hold string terminating \0


int ProcessRxPacket(int index)
{
 80007a0:	defff504 	addi	sp,sp,-44
 80007a4:	dfc00a15 	stw	ra,40(sp)
 80007a8:	df000915 	stw	fp,36(sp)
 80007ac:	df000904 	addi	fp,sp,36
 80007b0:	e13ff915 	stw	r4,-28(fp)
    int                 len, bufflen;
    struct sockaddr_in  client_addr;

	// Discovery channel has to process the receive buffer itself

	if (Connections[index].chantype == 'D')  // Discovery
 80007b4:	e0bff917 	ldw	r2,-28(fp)
 80007b8:	10c00b24 	muli	r3,r2,44
 80007bc:	00820174 	movhi	r2,2053
 80007c0:	1885883a 	add	r2,r3,r2
 80007c4:	109a8d03 	ldbu	r2,27188(r2)
 80007c8:	10803fcc 	andi	r2,r2,255
 80007cc:	1080201c 	xori	r2,r2,128
 80007d0:	10bfe004 	addi	r2,r2,-128
 80007d4:	10801118 	cmpnei	r2,r2,68
 80007d8:	1000031e 	bne	r2,zero,80007e8 <ProcessRxPacket+0x48>
		return DiscChanMessage(index);
 80007dc:	e13ff917 	ldw	r4,-28(fp)
 80007e0:	80009140 	call	8000914 <DiscChanMessage>
 80007e4:	00004606 	br	8000900 <ProcessRxPacket+0x160>

	// Get the received buffer
    memset(&client_addr, 0, sizeof(struct sockaddr_in));
 80007e8:	e0bffa04 	addi	r2,fp,-24
 80007ec:	01800404 	movi	r6,16
 80007f0:	000b883a 	mov	r5,zero
 80007f4:	1009883a 	mov	r4,r2
 80007f8:	800326c0 	call	800326c <memset>

    len = sizeof(struct sockaddr_in);
 80007fc:	00800404 	movi	r2,16
 8000800:	e0bffe15 	stw	r2,-8(fp)
	bufflen = recvfrom(Connections[index].fd, (char *)buffer, MAXLINE,
 8000804:	e0bff917 	ldw	r2,-28(fp)
 8000808:	10c00b24 	muli	r3,r2,44
 800080c:	00820174 	movhi	r2,2053
 8000810:	1885883a 	add	r2,r3,r2
 8000814:	10da8c17 	ldw	r3,27184(r2)
 8000818:	e0bffe04 	addi	r2,fp,-8
 800081c:	d8800115 	stw	r2,4(sp)
 8000820:	e0bffa04 	addi	r2,fp,-24
 8000824:	d8800015 	stw	r2,0(sp)
 8000828:	000f883a 	mov	r7,zero
 800082c:	01817704 	movi	r6,1500
 8000830:	01420174 	movhi	r5,2053
 8000834:	295b9a04 	addi	r5,r5,28264
 8000838:	1809883a 	mov	r4,r3
 800083c:	8027ae80 	call	8027ae8 <bsd_recvfrom>
 8000840:	e0bfff15 	stw	r2,-4(fp)
			/*MSG_WAITALL*/ 0, (struct sockaddr *) &client_addr, &len);
	buffer[bufflen] = '\0';
 8000844:	e0ffff17 	ldw	r3,-4(fp)
 8000848:	00820174 	movhi	r2,2053
 800084c:	1885883a 	add	r2,r3,r2
 8000850:	101b9a05 	stb	zero,28264(r2)

	if (Connections[index].chantype == 'P')  // Provisioning
 8000854:	e0bff917 	ldw	r2,-28(fp)
 8000858:	10c00b24 	muli	r3,r2,44
 800085c:	00820174 	movhi	r2,2053
 8000860:	1885883a 	add	r2,r3,r2
 8000864:	109a8d03 	ldbu	r2,27188(r2)
 8000868:	10803fcc 	andi	r2,r2,255
 800086c:	1080201c 	xori	r2,r2,128
 8000870:	10bfe004 	addi	r2,r2,-128
 8000874:	10801418 	cmpnei	r2,r2,80
 8000878:	1000041e 	bne	r2,zero,800088c <ProcessRxPacket+0xec>
		return ProvChanMessage(index, bufflen);
 800087c:	e17fff17 	ldw	r5,-4(fp)
 8000880:	e13ff917 	ldw	r4,-28(fp)
 8000884:	8000c700 	call	8000c70 <ProvChanMessage>
 8000888:	00001d06 	br	8000900 <ProcessRxPacket+0x160>

	if (Connections[index].chantype == 'C')  // Configuration
 800088c:	e0bff917 	ldw	r2,-28(fp)
 8000890:	10c00b24 	muli	r3,r2,44
 8000894:	00820174 	movhi	r2,2053
 8000898:	1885883a 	add	r2,r3,r2
 800089c:	109a8d03 	ldbu	r2,27188(r2)
 80008a0:	10803fcc 	andi	r2,r2,255
 80008a4:	1080201c 	xori	r2,r2,128
 80008a8:	10bfe004 	addi	r2,r2,-128
 80008ac:	108010d8 	cmpnei	r2,r2,67
 80008b0:	1000041e 	bne	r2,zero,80008c4 <ProcessRxPacket+0x124>
		return ConfigChanMessage(index, bufflen);
 80008b4:	e17fff17 	ldw	r5,-4(fp)
 80008b8:	e13ff917 	ldw	r4,-28(fp)
 80008bc:	8000e140 	call	8000e14 <ConfigChanMessage>
 80008c0:	00000f06 	br	8000900 <ProcessRxPacket+0x160>

	if (Connections[index].chantype == 'T')  // Traffic (Data rx'd from Ethernet to be RF transmitted)
 80008c4:	e0bff917 	ldw	r2,-28(fp)
 80008c8:	10c00b24 	muli	r3,r2,44
 80008cc:	00820174 	movhi	r2,2053
 80008d0:	1885883a 	add	r2,r3,r2
 80008d4:	109a8d03 	ldbu	r2,27188(r2)
 80008d8:	10803fcc 	andi	r2,r2,255
 80008dc:	1080201c 	xori	r2,r2,128
 80008e0:	10bfe004 	addi	r2,r2,-128
 80008e4:	10801518 	cmpnei	r2,r2,84
 80008e8:	1000041e 	bne	r2,zero,80008fc <ProcessRxPacket+0x15c>
		return TrafficChanMessage(index, bufflen);
 80008ec:	e17fff17 	ldw	r5,-4(fp)
 80008f0:	e13ff917 	ldw	r4,-28(fp)
 80008f4:	8000e580 	call	8000e58 <TrafficChanMessage>
 80008f8:	00000106 	br	8000900 <ProcessRxPacket+0x160>

	return -1;		// unknown or Idle chantype
 80008fc:	00bfffc4 	movi	r2,-1
};
 8000900:	e037883a 	mov	sp,fp
 8000904:	dfc00117 	ldw	ra,4(sp)
 8000908:	df000017 	ldw	fp,0(sp)
 800090c:	dec00204 	addi	sp,sp,8
 8000910:	f800283a 	ret

08000914 <DiscChanMessage>:


int DiscChanMessage(int index)
{
 8000914:	deffdd04 	addi	sp,sp,-140
 8000918:	dfc02215 	stw	ra,136(sp)
 800091c:	df002115 	stw	fp,132(sp)
 8000920:	df002104 	addi	fp,sp,132
 8000924:	e13fe115 	stw	r4,-124(fp)
     */

    int                 len, n, fd_prov_tx;
    struct sockaddr_in  client_addr, host_addr;

    memset(&client_addr, 0, sizeof(struct sockaddr_in));
 8000928:	e0bff604 	addi	r2,fp,-40
 800092c:	01800404 	movi	r6,16
 8000930:	000b883a 	mov	r5,zero
 8000934:	1009883a 	mov	r4,r2
 8000938:	800326c0 	call	800326c <memset>
    memset(&host_addr, 0, sizeof(struct sockaddr_in));
 800093c:	e0bff204 	addi	r2,fp,-56
 8000940:	01800404 	movi	r6,16
 8000944:	000b883a 	mov	r5,zero
 8000948:	1009883a 	mov	r4,r2
 800094c:	800326c0 	call	800326c <memset>

    /* Discovery reply format:
     * 0xEF 0xFE 0x02 (not sending data yet) 6-byte ourMACaddress code_ver
     * board_id (0x07 from TSDR)
     */
    uint8_t disc_resp[64] = { 0xfe, 0xef, 0x02, 0x00, 0x07, 0xed, 0x2a, 0x22, 0x16, 0x07 };
 8000950:	008000f4 	movhi	r2,3
 8000954:	10bbff84 	addi	r2,r2,-4098
 8000958:	e0bfe215 	stw	r2,-120(fp)
 800095c:	00888af4 	movhi	r2,8747
 8000960:	10bb41c4 	addi	r2,r2,-4857
 8000964:	e0bfe315 	stw	r2,-116(fp)
 8000968:	0081c584 	movi	r2,1814
 800096c:	e0bfe415 	stw	r2,-112(fp)
 8000970:	e03fe515 	stw	zero,-108(fp)
 8000974:	e03fe615 	stw	zero,-104(fp)
 8000978:	e03fe715 	stw	zero,-100(fp)
 800097c:	e03fe815 	stw	zero,-96(fp)
 8000980:	e03fe915 	stw	zero,-92(fp)
 8000984:	e03fea15 	stw	zero,-88(fp)
 8000988:	e03feb15 	stw	zero,-84(fp)
 800098c:	e03fec15 	stw	zero,-80(fp)
 8000990:	e03fed15 	stw	zero,-76(fp)
 8000994:	e03fee15 	stw	zero,-72(fp)
 8000998:	e03fef15 	stw	zero,-68(fp)
 800099c:	e03ff015 	stw	zero,-64(fp)
 80009a0:	e03ff115 	stw	zero,-60(fp)
    memset(&disc_resp[10], 0, 54);  // discovery reply is padded with zeros
 80009a4:	e0bfe204 	addi	r2,fp,-120
 80009a8:	10800284 	addi	r2,r2,10
 80009ac:	01800d84 	movi	r6,54
 80009b0:	000b883a 	mov	r5,zero
 80009b4:	1009883a 	mov	r4,r2
 80009b8:	800326c0 	call	800326c <memset>

    len = sizeof(struct sockaddr_in);
 80009bc:	00800404 	movi	r2,16
 80009c0:	e0bffa15 	stw	r2,-24(fp)
	n = recvfrom(Connections[index].fd, (char *)buffer, MAXLINE,
 80009c4:	e0bfe117 	ldw	r2,-124(fp)
 80009c8:	10c00b24 	muli	r3,r2,44
 80009cc:	00820174 	movhi	r2,2053
 80009d0:	1885883a 	add	r2,r3,r2
 80009d4:	10da8c17 	ldw	r3,27184(r2)
 80009d8:	e0bffa04 	addi	r2,fp,-24
 80009dc:	d8800115 	stw	r2,4(sp)
 80009e0:	e0bff604 	addi	r2,fp,-40
 80009e4:	d8800015 	stw	r2,0(sp)
 80009e8:	000f883a 	mov	r7,zero
 80009ec:	01817704 	movi	r6,1500
 80009f0:	01420174 	movhi	r5,2053
 80009f4:	295b9a04 	addi	r5,r5,28264
 80009f8:	1809883a 	mov	r4,r3
 80009fc:	8027ae80 	call	8027ae8 <bsd_recvfrom>
 8000a00:	e0bfff15 	stw	r2,-4(fp)
			/*MSG_WAITALL*/ 0, (struct sockaddr *) &client_addr, &len);
	buffer[n] = '\0';
 8000a04:	e0ffff17 	ldw	r3,-4(fp)
 8000a08:	00820174 	movhi	r2,2053
 8000a0c:	1885883a 	add	r2,r3,r2
 8000a10:	101b9a05 	stb	zero,28264(r2)

    /* check for 0xef 0xfe 0x02 signifying discovery request */
	if ((buffer[0] == 0xef) && (buffer[1] == 0xfe) && (buffer[2] == 0x02))
 8000a14:	00820174 	movhi	r2,2053
 8000a18:	109b9a03 	ldbu	r2,28264(r2)
 8000a1c:	10803fcc 	andi	r2,r2,255
 8000a20:	10803bd8 	cmpnei	r2,r2,239
 8000a24:	10003a1e 	bne	r2,zero,8000b10 <DiscChanMessage+0x1fc>
 8000a28:	00820174 	movhi	r2,2053
 8000a2c:	109b9a43 	ldbu	r2,28265(r2)
 8000a30:	10803fcc 	andi	r2,r2,255
 8000a34:	10803f98 	cmpnei	r2,r2,254
 8000a38:	1000351e 	bne	r2,zero,8000b10 <DiscChanMessage+0x1fc>
 8000a3c:	00820174 	movhi	r2,2053
 8000a40:	109b9a83 	ldbu	r2,28266(r2)
 8000a44:	10803fcc 	andi	r2,r2,255
 8000a48:	10800098 	cmpnei	r2,r2,2
 8000a4c:	1000301e 	bne	r2,zero,8000b10 <DiscChanMessage+0x1fc>
	  printf("Valid OpenHPSDR Discovery request received\n");
 8000a50:	01020174 	movhi	r4,2053
 8000a54:	21387204 	addi	r4,r4,-7736
 8000a58:	80036480 	call	8003648 <puts>
	else
		return -1;	// unknown discovery message - throw away

	printf("From: %s   Port: %u\n", inet_ntoa(client_addr.sin_addr), ntohs(client_addr.sin_port));
 8000a5c:	e13ff717 	ldw	r4,-36(fp)
 8000a60:	8027ab40 	call	8027ab4 <bsd_inet_ntoa>
 8000a64:	1009883a 	mov	r4,r2
 8000a68:	e0bff68b 	ldhu	r2,-38(fp)
 8000a6c:	10bfffcc 	andi	r2,r2,65535
 8000a70:	1004d23a 	srli	r2,r2,8
 8000a74:	10bfffcc 	andi	r2,r2,65535
 8000a78:	10c03fcc 	andi	r3,r2,255
 8000a7c:	e0bff68b 	ldhu	r2,-38(fp)
 8000a80:	10bfffcc 	andi	r2,r2,65535
 8000a84:	1004923a 	slli	r2,r2,8
 8000a88:	10bfffcc 	andi	r2,r2,65535
 8000a8c:	1884b03a 	or	r2,r3,r2
 8000a90:	100d883a 	mov	r6,r2
 8000a94:	200b883a 	mov	r5,r4
 8000a98:	01020174 	movhi	r4,2053
 8000a9c:	21387d04 	addi	r4,r4,-7692
 8000aa0:	80035240 	call	8003524 <printf>
	printf("Received buffer : 0x%2x 0x%2x 0x%2x 0x%2x\n", buffer[0], buffer[1], buffer[2], buffer[3]);
 8000aa4:	00820174 	movhi	r2,2053
 8000aa8:	109b9a03 	ldbu	r2,28264(r2)
 8000aac:	10c03fcc 	andi	r3,r2,255
 8000ab0:	00820174 	movhi	r2,2053
 8000ab4:	109b9a43 	ldbu	r2,28265(r2)
 8000ab8:	11003fcc 	andi	r4,r2,255
 8000abc:	00820174 	movhi	r2,2053
 8000ac0:	109b9a83 	ldbu	r2,28266(r2)
 8000ac4:	11403fcc 	andi	r5,r2,255
 8000ac8:	00820174 	movhi	r2,2053
 8000acc:	109b9ac3 	ldbu	r2,28267(r2)
 8000ad0:	10803fcc 	andi	r2,r2,255
 8000ad4:	d8800015 	stw	r2,0(sp)
 8000ad8:	280f883a 	mov	r7,r5
 8000adc:	200d883a 	mov	r6,r4
 8000ae0:	180b883a 	mov	r5,r3
 8000ae4:	01020174 	movhi	r4,2053
 8000ae8:	21388304 	addi	r4,r4,-7668
 8000aec:	80035240 	call	8003524 <printf>

    // See if we already have a Provisioning Channel open from this client

    int existingIndex = findExistingChan('P', &client_addr);
 8000af0:	e0bff604 	addi	r2,fp,-40
 8000af4:	100b883a 	mov	r5,r2
 8000af8:	01001404 	movi	r4,80
 8000afc:	80005c40 	call	80005c4 <findExistingChan>
 8000b00:	e0bffe15 	stw	r2,-8(fp)
    if (existingIndex >= 0)		// Have an existing provisioning channel - send a duplicate reply
 8000b04:	e0bffe17 	ldw	r2,-8(fp)
 8000b08:	1000030e 	bge	r2,zero,8000b18 <DiscChanMessage+0x204>
 8000b0c:	00001406 	br	8000b60 <DiscChanMessage+0x24c>
		return -1;	// unknown discovery message - throw away
 8000b10:	00bfffc4 	movi	r2,-1
 8000b14:	00005106 	br	8000c5c <DiscChanMessage+0x348>
    {
    	int result = sendto(Connections[existingIndex].fd, (void *)disc_resp, sizeof(disc_resp),
 8000b18:	e0bffe17 	ldw	r2,-8(fp)
 8000b1c:	10c00b24 	muli	r3,r2,44
 8000b20:	00820174 	movhi	r2,2053
 8000b24:	1885883a 	add	r2,r3,r2
 8000b28:	10da8c17 	ldw	r3,27184(r2)
 8000b2c:	e13fe204 	addi	r4,fp,-120
 8000b30:	00800404 	movi	r2,16
 8000b34:	d8800115 	stw	r2,4(sp)
 8000b38:	e0bff604 	addi	r2,fp,-40
 8000b3c:	d8800015 	stw	r2,0(sp)
 8000b40:	000f883a 	mov	r7,zero
 8000b44:	01801004 	movi	r6,64
 8000b48:	200b883a 	mov	r5,r4
 8000b4c:	1809883a 	mov	r4,r3
 8000b50:	803043c0 	call	803043c <t_sendto>
 8000b54:	e0bffb15 	stw	r2,-20(fp)
				/*MSG_CONFIRM*/ 0, (struct sockaddr *) &client_addr, sizeof(struct sockaddr_in));
    	return result;
 8000b58:	e0bffb17 	ldw	r2,-20(fp)
 8000b5c:	00003f06 	br	8000c5c <DiscChanMessage+0x348>
    }

    // Don't have an existing channel. Create a new Provisioning channel to send the discovery reply

    if ((fd_prov_tx = socket(AF_INET, SOCK_DGRAM, 0)) < 0)
 8000b60:	000d883a 	mov	r6,zero
 8000b64:	01400084 	movi	r5,2
 8000b68:	01000084 	movi	r4,2
 8000b6c:	802f5000 	call	802f500 <t_socket>
 8000b70:	e0bffd15 	stw	r2,-12(fp)
 8000b74:	e0bffd17 	ldw	r2,-12(fp)
 8000b78:	1000040e 	bge	r2,zero,8000b8c <DiscChanMessage+0x278>
    {
      alt_NetworkErrorHandler(EXPANDED_DIAGNOSIS_CODE,"[TSDR_task] Provisioning Socket creation failed");
 8000b7c:	01420174 	movhi	r5,2053
 8000b80:	29788e04 	addi	r5,r5,-7624
 8000b84:	01003fc4 	movi	r4,255
 8000b88:	80021540 	call	8002154 <alt_NetworkErrorHandler>
    }

    // Use a new sending socket. sendto implicitly binds a new (random) receive port number

    sendto(fd_prov_tx, (void *)disc_resp, sizeof(disc_resp),
 8000b8c:	e0ffe204 	addi	r3,fp,-120
 8000b90:	00800404 	movi	r2,16
 8000b94:	d8800115 	stw	r2,4(sp)
 8000b98:	e0bff604 	addi	r2,fp,-40
 8000b9c:	d8800015 	stw	r2,0(sp)
 8000ba0:	000f883a 	mov	r7,zero
 8000ba4:	01801004 	movi	r6,64
 8000ba8:	180b883a 	mov	r5,r3
 8000bac:	e13ffd17 	ldw	r4,-12(fp)
 8000bb0:	803043c0 	call	803043c <t_sendto>
    		/*MSG_CONFIRM*/ 0, (struct sockaddr *) &client_addr, sizeof(struct sockaddr_in));

    len = sizeof(struct sockaddr_in);
 8000bb4:	00800404 	movi	r2,16
 8000bb8:	e0bffa15 	stw	r2,-24(fp)
    if (getsockname(fd_prov_tx, (struct sockaddr *)&host_addr, &len) == -1)
 8000bbc:	e0fffa04 	addi	r3,fp,-24
 8000bc0:	e0bff204 	addi	r2,fp,-56
 8000bc4:	180d883a 	mov	r6,r3
 8000bc8:	100b883a 	mov	r5,r2
 8000bcc:	e13ffd17 	ldw	r4,-12(fp)
 8000bd0:	80275c00 	call	80275c0 <bsd_getsockname>
 8000bd4:	10bfffd8 	cmpnei	r2,r2,-1
 8000bd8:	1000051e 	bne	r2,zero,8000bf0 <DiscChanMessage+0x2dc>
    {
    	perror("getsockname() error\n");
 8000bdc:	01020174 	movhi	r4,2053
 8000be0:	21389a04 	addi	r4,r4,-7576
 8000be4:	80034e40 	call	80034e4 <perror>
    	return -1;	// Error
 8000be8:	00bfffc4 	movi	r2,-1
 8000bec:	00001b06 	br	8000c5c <DiscChanMessage+0x348>
    }
    else
    {
    	printf("Provisioning port number: %d\n", ntohs(host_addr.sin_port));
 8000bf0:	e0bff28b 	ldhu	r2,-54(fp)
 8000bf4:	10bfffcc 	andi	r2,r2,65535
 8000bf8:	1004d23a 	srli	r2,r2,8
 8000bfc:	10bfffcc 	andi	r2,r2,65535
 8000c00:	10c03fcc 	andi	r3,r2,255
 8000c04:	e0bff28b 	ldhu	r2,-54(fp)
 8000c08:	10bfffcc 	andi	r2,r2,65535
 8000c0c:	1004923a 	slli	r2,r2,8
 8000c10:	10bfffcc 	andi	r2,r2,65535
 8000c14:	1884b03a 	or	r2,r3,r2
 8000c18:	100b883a 	mov	r5,r2
 8000c1c:	01020174 	movhi	r4,2053
 8000c20:	2138a004 	addi	r4,r4,-7552
 8000c24:	80035240 	call	8003524 <printf>
    	int addresult = buildaddChan(fd_prov_tx, 'P', &host_addr, &client_addr);
 8000c28:	e0fff604 	addi	r3,fp,-40
 8000c2c:	e0bff204 	addi	r2,fp,-56
 8000c30:	180f883a 	mov	r7,r3
 8000c34:	100d883a 	mov	r6,r2
 8000c38:	01401404 	movi	r5,80
 8000c3c:	e13ffd17 	ldw	r4,-12(fp)
 8000c40:	800067c0 	call	800067c <buildaddChan>
 8000c44:	e0bffc15 	stw	r2,-16(fp)
    	printf("Result of adding new provisioning channel to table: %u\n", addresult);
 8000c48:	e17ffc17 	ldw	r5,-16(fp)
 8000c4c:	01020174 	movhi	r4,2053
 8000c50:	2138a804 	addi	r4,r4,-7520
 8000c54:	80035240 	call	8003524 <printf>
    	return addresult;   // return the result of adding the channel to the table
 8000c58:	e0bffc17 	ldw	r2,-16(fp)
    }
};
 8000c5c:	e037883a 	mov	sp,fp
 8000c60:	dfc00117 	ldw	ra,4(sp)
 8000c64:	df000017 	ldw	fp,0(sp)
 8000c68:	dec00204 	addi	sp,sp,8
 8000c6c:	f800283a 	ret

08000c70 <ProvChanMessage>:

int ProvChanMessage(int index, int bufflen)
{
 8000c70:	deffef04 	addi	sp,sp,-68
 8000c74:	dfc01015 	stw	ra,64(sp)
 8000c78:	df000f15 	stw	fp,60(sp)
 8000c7c:	df000f04 	addi	fp,sp,60
 8000c80:	e13ff415 	stw	r4,-48(fp)
 8000c84:	e17ff315 	stw	r5,-52(fp)
	 */

	int result;
	char resultmessage[40];

	printf("Received Provisioning Channel Message: %s\n", buffer);
 8000c88:	01420174 	movhi	r5,2053
 8000c8c:	295b9a04 	addi	r5,r5,28264
 8000c90:	01020174 	movhi	r4,2053
 8000c94:	2138b604 	addi	r4,r4,-7464
 8000c98:	80035240 	call	8003524 <printf>

	if (buffer[0] == 'Y' || buffer[0] == 'X')
 8000c9c:	00820174 	movhi	r2,2053
 8000ca0:	109b9a03 	ldbu	r2,28264(r2)
 8000ca4:	10803fcc 	andi	r2,r2,255
 8000ca8:	10801660 	cmpeqi	r2,r2,89
 8000cac:	1000051e 	bne	r2,zero,8000cc4 <ProvChanMessage+0x54>
 8000cb0:	00820174 	movhi	r2,2053
 8000cb4:	109b9a03 	ldbu	r2,28264(r2)
 8000cb8:	10803fcc 	andi	r2,r2,255
 8000cbc:	10801618 	cmpnei	r2,r2,88
 8000cc0:	1000041e 	bne	r2,zero,8000cd4 <ProvChanMessage+0x64>
		result = ProvisioningLEDCommand(index, bufflen);
 8000cc4:	e17ff317 	ldw	r5,-52(fp)
 8000cc8:	e13ff417 	ldw	r4,-48(fp)
 8000ccc:	8000e9c0 	call	8000e9c <ProvisioningLEDCommand>
 8000cd0:	e0bfff15 	stw	r2,-4(fp)


	if (buffer[0] == 'M')
 8000cd4:	00820174 	movhi	r2,2053
 8000cd8:	109b9a03 	ldbu	r2,28264(r2)
 8000cdc:	10803fcc 	andi	r2,r2,255
 8000ce0:	10801358 	cmpnei	r2,r2,77
 8000ce4:	1000071e 	bne	r2,zero,8000d04 <ProvChanMessage+0x94>
		result = ProvisioningModuleRegisterCommand(index, buffer, resultmessage);
 8000ce8:	e0bff504 	addi	r2,fp,-44
 8000cec:	100d883a 	mov	r6,r2
 8000cf0:	01420174 	movhi	r5,2053
 8000cf4:	295b9a04 	addi	r5,r5,28264
 8000cf8:	e13ff417 	ldw	r4,-48(fp)
 8000cfc:	80015c00 	call	80015c0 <ProvisioningModuleRegisterCommand>
 8000d00:	e0bfff15 	stw	r2,-4(fp)

	if (result < 0)
 8000d04:	e0bfff17 	ldw	r2,-4(fp)
 8000d08:	1000150e 	bge	r2,zero,8000d60 <ProvChanMessage+0xf0>
	{
        sendto(Connections[index].fd, (void *)"NAK\n", 4, 0, (struct sockaddr *) &Connections[index].client_ip, sizeof(struct sockaddr_in));
 8000d0c:	e0bff417 	ldw	r2,-48(fp)
 8000d10:	10c00b24 	muli	r3,r2,44
 8000d14:	00820174 	movhi	r2,2053
 8000d18:	1885883a 	add	r2,r3,r2
 8000d1c:	111a8c17 	ldw	r4,27184(r2)
 8000d20:	e0bff417 	ldw	r2,-48(fp)
 8000d24:	10800b24 	muli	r2,r2,44
 8000d28:	10c00604 	addi	r3,r2,24
 8000d2c:	00820174 	movhi	r2,2053
 8000d30:	109a8c04 	addi	r2,r2,27184
 8000d34:	1885883a 	add	r2,r3,r2
 8000d38:	00c00404 	movi	r3,16
 8000d3c:	d8c00115 	stw	r3,4(sp)
 8000d40:	d8800015 	stw	r2,0(sp)
 8000d44:	000f883a 	mov	r7,zero
 8000d48:	01800104 	movi	r6,4
 8000d4c:	01420174 	movhi	r5,2053
 8000d50:	2978c104 	addi	r5,r5,-7420
 8000d54:	803043c0 	call	803043c <t_sendto>
        return result;
 8000d58:	e0bfff17 	ldw	r2,-4(fp)
 8000d5c:	00002806 	br	8000e00 <ProvChanMessage+0x190>
	}

    sendto(Connections[index].fd, (void *)"AK\n", 4, 0, (struct sockaddr *) &Connections[index].client_ip, sizeof(struct sockaddr_in));
 8000d60:	e0bff417 	ldw	r2,-48(fp)
 8000d64:	10c00b24 	muli	r3,r2,44
 8000d68:	00820174 	movhi	r2,2053
 8000d6c:	1885883a 	add	r2,r3,r2
 8000d70:	111a8c17 	ldw	r4,27184(r2)
 8000d74:	e0bff417 	ldw	r2,-48(fp)
 8000d78:	10800b24 	muli	r2,r2,44
 8000d7c:	10c00604 	addi	r3,r2,24
 8000d80:	00820174 	movhi	r2,2053
 8000d84:	109a8c04 	addi	r2,r2,27184
 8000d88:	1885883a 	add	r2,r3,r2
 8000d8c:	00c00404 	movi	r3,16
 8000d90:	d8c00115 	stw	r3,4(sp)
 8000d94:	d8800015 	stw	r2,0(sp)
 8000d98:	000f883a 	mov	r7,zero
 8000d9c:	01800104 	movi	r6,4
 8000da0:	01420174 	movhi	r5,2053
 8000da4:	2978c304 	addi	r5,r5,-7412
 8000da8:	803043c0 	call	803043c <t_sendto>

    if (result > 0)
 8000dac:	e0bfff17 	ldw	r2,-4(fp)
 8000db0:	0080120e 	bge	zero,r2,8000dfc <ProvChanMessage+0x18c>
        sendto(Connections[index].fd, (void *)resultmessage, 4, 0, (struct sockaddr *) &Connections[index].client_ip, sizeof(struct sockaddr_in));
 8000db4:	e0bff417 	ldw	r2,-48(fp)
 8000db8:	10c00b24 	muli	r3,r2,44
 8000dbc:	00820174 	movhi	r2,2053
 8000dc0:	1885883a 	add	r2,r3,r2
 8000dc4:	111a8c17 	ldw	r4,27184(r2)
 8000dc8:	e0bff417 	ldw	r2,-48(fp)
 8000dcc:	10800b24 	muli	r2,r2,44
 8000dd0:	10c00604 	addi	r3,r2,24
 8000dd4:	00820174 	movhi	r2,2053
 8000dd8:	109a8c04 	addi	r2,r2,27184
 8000ddc:	1885883a 	add	r2,r3,r2
 8000de0:	e17ff504 	addi	r5,fp,-44
 8000de4:	00c00404 	movi	r3,16
 8000de8:	d8c00115 	stw	r3,4(sp)
 8000dec:	d8800015 	stw	r2,0(sp)
 8000df0:	000f883a 	mov	r7,zero
 8000df4:	01800104 	movi	r6,4
 8000df8:	803043c0 	call	803043c <t_sendto>

	return result;
 8000dfc:	e0bfff17 	ldw	r2,-4(fp)
};
 8000e00:	e037883a 	mov	sp,fp
 8000e04:	dfc00117 	ldw	ra,4(sp)
 8000e08:	df000017 	ldw	fp,0(sp)
 8000e0c:	dec00204 	addi	sp,sp,8
 8000e10:	f800283a 	ret

08000e14 <ConfigChanMessage>:

int ConfigChanMessage(int index, int bufflen)
{
 8000e14:	defffc04 	addi	sp,sp,-16
 8000e18:	dfc00315 	stw	ra,12(sp)
 8000e1c:	df000215 	stw	fp,8(sp)
 8000e20:	df000204 	addi	fp,sp,8
 8000e24:	e13fff15 	stw	r4,-4(fp)
 8000e28:	e17ffe15 	stw	r5,-8(fp)
    // Received Configuration Channel message

	printf("Received Configuration Channel Message: %s\n", buffer);
 8000e2c:	01420174 	movhi	r5,2053
 8000e30:	295b9a04 	addi	r5,r5,28264
 8000e34:	01020174 	movhi	r4,2053
 8000e38:	2138c404 	addi	r4,r4,-7408
 8000e3c:	80035240 	call	8003524 <printf>
	return -2;	// not yet implemented
 8000e40:	00bfff84 	movi	r2,-2
};
 8000e44:	e037883a 	mov	sp,fp
 8000e48:	dfc00117 	ldw	ra,4(sp)
 8000e4c:	df000017 	ldw	fp,0(sp)
 8000e50:	dec00204 	addi	sp,sp,8
 8000e54:	f800283a 	ret

08000e58 <TrafficChanMessage>:

int TrafficChanMessage(int index, int bufflen)
{
 8000e58:	defffc04 	addi	sp,sp,-16
 8000e5c:	dfc00315 	stw	ra,12(sp)
 8000e60:	df000215 	stw	fp,8(sp)
 8000e64:	df000204 	addi	fp,sp,8
 8000e68:	e13fff15 	stw	r4,-4(fp)
 8000e6c:	e17ffe15 	stw	r5,-8(fp)
    // Received Traffic (Data) Channel message

	printf("Received Traffic Channel Message: %s\n",buffer);
 8000e70:	01420174 	movhi	r5,2053
 8000e74:	295b9a04 	addi	r5,r5,28264
 8000e78:	01020174 	movhi	r4,2053
 8000e7c:	2138cf04 	addi	r4,r4,-7364
 8000e80:	80035240 	call	8003524 <printf>
	return -2;	// not yet implemented
 8000e84:	00bfff84 	movi	r2,-2
};
 8000e88:	e037883a 	mov	sp,fp
 8000e8c:	dfc00117 	ldw	ra,4(sp)
 8000e90:	df000017 	ldw	fp,0(sp)
 8000e94:	dec00204 	addi	sp,sp,8
 8000e98:	f800283a 	ret

08000e9c <ProvisioningLEDCommand>:


int ProvisioningLEDCommand(int index, int bufflen)
{
 8000e9c:	defffc04 	addi	sp,sp,-16
 8000ea0:	dfc00315 	stw	ra,12(sp)
 8000ea4:	df000215 	stw	fp,8(sp)
 8000ea8:	df000204 	addi	fp,sp,8
 8000eac:	e13fff15 	stw	r4,-4(fp)
 8000eb0:	e17ffe15 	stw	r5,-8(fp)
	if (buffer[0] == 'Y')	// Turn on LED0 - 3
 8000eb4:	00820174 	movhi	r2,2053
 8000eb8:	109b9a03 	ldbu	r2,28264(r2)
 8000ebc:	10803fcc 	andi	r2,r2,255
 8000ec0:	10801658 	cmpnei	r2,r2,89
 8000ec4:	10003a1e 	bne	r2,zero,8000fb0 <ProvisioningLEDCommand+0x114>
	{
		if (buffer[1] == '0')
 8000ec8:	00820174 	movhi	r2,2053
 8000ecc:	109b9a43 	ldbu	r2,28265(r2)
 8000ed0:	10803fcc 	andi	r2,r2,255
 8000ed4:	10800c18 	cmpnei	r2,r2,48
 8000ed8:	1000091e 	bne	r2,zero,8000f00 <ProvisioningLEDCommand+0x64>
		{
			LEDCommand = 0x01;
 8000edc:	00800044 	movi	r2,1
 8000ee0:	d0a05415 	stw	r2,-32432(gp)
			OSQPost(SSSLEDCommandQ, (void *) LEDCommand);
 8000ee4:	d0a05817 	ldw	r2,-32416(gp)
 8000ee8:	d0e05417 	ldw	r3,-32432(gp)
 8000eec:	180b883a 	mov	r5,r3
 8000ef0:	1009883a 	mov	r4,r2
 8000ef4:	80161280 	call	8016128 <OSQPost>
			return 0;
 8000ef8:	0005883a 	mov	r2,zero
 8000efc:	00006c06 	br	80010b0 <ProvisioningLEDCommand+0x214>
		}
		if (buffer[1] == '1')
 8000f00:	00820174 	movhi	r2,2053
 8000f04:	109b9a43 	ldbu	r2,28265(r2)
 8000f08:	10803fcc 	andi	r2,r2,255
 8000f0c:	10800c58 	cmpnei	r2,r2,49
 8000f10:	1000091e 	bne	r2,zero,8000f38 <ProvisioningLEDCommand+0x9c>
		{
			LEDCommand = 0x02;
 8000f14:	00800084 	movi	r2,2
 8000f18:	d0a05415 	stw	r2,-32432(gp)
			OSQPost(SSSLEDCommandQ, (void *) LEDCommand);
 8000f1c:	d0a05817 	ldw	r2,-32416(gp)
 8000f20:	d0e05417 	ldw	r3,-32432(gp)
 8000f24:	180b883a 	mov	r5,r3
 8000f28:	1009883a 	mov	r4,r2
 8000f2c:	80161280 	call	8016128 <OSQPost>
			return 0;
 8000f30:	0005883a 	mov	r2,zero
 8000f34:	00005e06 	br	80010b0 <ProvisioningLEDCommand+0x214>
		}
		if (buffer[1] == '2')
 8000f38:	00820174 	movhi	r2,2053
 8000f3c:	109b9a43 	ldbu	r2,28265(r2)
 8000f40:	10803fcc 	andi	r2,r2,255
 8000f44:	10800c98 	cmpnei	r2,r2,50
 8000f48:	1000091e 	bne	r2,zero,8000f70 <ProvisioningLEDCommand+0xd4>
		{
			LEDCommand = 0x04;
 8000f4c:	00800104 	movi	r2,4
 8000f50:	d0a05415 	stw	r2,-32432(gp)
			OSQPost(SSSLEDCommandQ, (void *) LEDCommand);
 8000f54:	d0a05817 	ldw	r2,-32416(gp)
 8000f58:	d0e05417 	ldw	r3,-32432(gp)
 8000f5c:	180b883a 	mov	r5,r3
 8000f60:	1009883a 	mov	r4,r2
 8000f64:	80161280 	call	8016128 <OSQPost>
			return 0;
 8000f68:	0005883a 	mov	r2,zero
 8000f6c:	00005006 	br	80010b0 <ProvisioningLEDCommand+0x214>
		}
		if (buffer[1] == '3')
 8000f70:	00820174 	movhi	r2,2053
 8000f74:	109b9a43 	ldbu	r2,28265(r2)
 8000f78:	10803fcc 	andi	r2,r2,255
 8000f7c:	10800cd8 	cmpnei	r2,r2,51
 8000f80:	1000091e 	bne	r2,zero,8000fa8 <ProvisioningLEDCommand+0x10c>
		{
			LEDCommand = 0x08;
 8000f84:	00800204 	movi	r2,8
 8000f88:	d0a05415 	stw	r2,-32432(gp)
			OSQPost(SSSLEDCommandQ, (void *) LEDCommand);
 8000f8c:	d0a05817 	ldw	r2,-32416(gp)
 8000f90:	d0e05417 	ldw	r3,-32432(gp)
 8000f94:	180b883a 	mov	r5,r3
 8000f98:	1009883a 	mov	r4,r2
 8000f9c:	80161280 	call	8016128 <OSQPost>
			return 0;
 8000fa0:	0005883a 	mov	r2,zero
 8000fa4:	00004206 	br	80010b0 <ProvisioningLEDCommand+0x214>
		}
		return -1;	// unknown LED number
 8000fa8:	00bfffc4 	movi	r2,-1
 8000fac:	00004006 	br	80010b0 <ProvisioningLEDCommand+0x214>
	}

	if (buffer[0] == 'X')	// Turn off LED0 - 3
 8000fb0:	00820174 	movhi	r2,2053
 8000fb4:	109b9a03 	ldbu	r2,28264(r2)
 8000fb8:	10803fcc 	andi	r2,r2,255
 8000fbc:	10801618 	cmpnei	r2,r2,88
 8000fc0:	10003a1e 	bne	r2,zero,80010ac <ProvisioningLEDCommand+0x210>
	{
		if (buffer[1] == '0')
 8000fc4:	00820174 	movhi	r2,2053
 8000fc8:	109b9a43 	ldbu	r2,28265(r2)
 8000fcc:	10803fcc 	andi	r2,r2,255
 8000fd0:	10800c18 	cmpnei	r2,r2,48
 8000fd4:	1000091e 	bne	r2,zero,8000ffc <ProvisioningLEDCommand+0x160>
		{
			LEDCommand = 0x10;
 8000fd8:	00800404 	movi	r2,16
 8000fdc:	d0a05415 	stw	r2,-32432(gp)
			OSQPost(SSSLEDCommandQ, (void *) LEDCommand);
 8000fe0:	d0a05817 	ldw	r2,-32416(gp)
 8000fe4:	d0e05417 	ldw	r3,-32432(gp)
 8000fe8:	180b883a 	mov	r5,r3
 8000fec:	1009883a 	mov	r4,r2
 8000ff0:	80161280 	call	8016128 <OSQPost>
			return 0;
 8000ff4:	0005883a 	mov	r2,zero
 8000ff8:	00002d06 	br	80010b0 <ProvisioningLEDCommand+0x214>
		}
		if (buffer[1] == '1')
 8000ffc:	00820174 	movhi	r2,2053
 8001000:	109b9a43 	ldbu	r2,28265(r2)
 8001004:	10803fcc 	andi	r2,r2,255
 8001008:	10800c58 	cmpnei	r2,r2,49
 800100c:	1000091e 	bne	r2,zero,8001034 <ProvisioningLEDCommand+0x198>
		{
			LEDCommand = 0x20;
 8001010:	00800804 	movi	r2,32
 8001014:	d0a05415 	stw	r2,-32432(gp)
			OSQPost(SSSLEDCommandQ, (void *) LEDCommand);
 8001018:	d0a05817 	ldw	r2,-32416(gp)
 800101c:	d0e05417 	ldw	r3,-32432(gp)
 8001020:	180b883a 	mov	r5,r3
 8001024:	1009883a 	mov	r4,r2
 8001028:	80161280 	call	8016128 <OSQPost>
			return 0;
 800102c:	0005883a 	mov	r2,zero
 8001030:	00001f06 	br	80010b0 <ProvisioningLEDCommand+0x214>
		}
		if (buffer[1] == '2')
 8001034:	00820174 	movhi	r2,2053
 8001038:	109b9a43 	ldbu	r2,28265(r2)
 800103c:	10803fcc 	andi	r2,r2,255
 8001040:	10800c98 	cmpnei	r2,r2,50
 8001044:	1000091e 	bne	r2,zero,800106c <ProvisioningLEDCommand+0x1d0>
		{
			LEDCommand = 0x40;
 8001048:	00801004 	movi	r2,64
 800104c:	d0a05415 	stw	r2,-32432(gp)
			OSQPost(SSSLEDCommandQ, (void *) LEDCommand);
 8001050:	d0a05817 	ldw	r2,-32416(gp)
 8001054:	d0e05417 	ldw	r3,-32432(gp)
 8001058:	180b883a 	mov	r5,r3
 800105c:	1009883a 	mov	r4,r2
 8001060:	80161280 	call	8016128 <OSQPost>
			return 0;
 8001064:	0005883a 	mov	r2,zero
 8001068:	00001106 	br	80010b0 <ProvisioningLEDCommand+0x214>
		}
		if (buffer[1] == '3')
 800106c:	00820174 	movhi	r2,2053
 8001070:	109b9a43 	ldbu	r2,28265(r2)
 8001074:	10803fcc 	andi	r2,r2,255
 8001078:	10800cd8 	cmpnei	r2,r2,51
 800107c:	1000091e 	bne	r2,zero,80010a4 <ProvisioningLEDCommand+0x208>
		{
			LEDCommand = 0x80;
 8001080:	00802004 	movi	r2,128
 8001084:	d0a05415 	stw	r2,-32432(gp)
			OSQPost(SSSLEDCommandQ, (void *) LEDCommand);
 8001088:	d0a05817 	ldw	r2,-32416(gp)
 800108c:	d0e05417 	ldw	r3,-32432(gp)
 8001090:	180b883a 	mov	r5,r3
 8001094:	1009883a 	mov	r4,r2
 8001098:	80161280 	call	8016128 <OSQPost>
			return 0;
 800109c:	0005883a 	mov	r2,zero
 80010a0:	00000306 	br	80010b0 <ProvisioningLEDCommand+0x214>
		}
		return -1;	// unknown LED number
 80010a4:	00bfffc4 	movi	r2,-1
 80010a8:	00000106 	br	80010b0 <ProvisioningLEDCommand+0x214>
	}
	return -2;		// How did we get here?
 80010ac:	00bfff84 	movi	r2,-2

};
 80010b0:	e037883a 	mov	sp,fp
 80010b4:	dfc00117 	ldw	ra,4(sp)
 80010b8:	df000017 	ldw	fp,0(sp)
 80010bc:	dec00204 	addi	sp,sp,8
 80010c0:	f800283a 	ret

080010c4 <SI5345>:

int SI5345(struct PARSEDCMD *cmds, char resultmessage[], int itfcindex) 		// Handler for ATECC 608A ID PROM
{
 80010c4:	defffc04 	addi	sp,sp,-16
 80010c8:	df000315 	stw	fp,12(sp)
 80010cc:	df000304 	addi	fp,sp,12
 80010d0:	e13fff15 	stw	r4,-4(fp)
 80010d4:	e17ffe15 	stw	r5,-8(fp)
 80010d8:	e1bffd15 	stw	r6,-12(fp)
	return -3;	// unimplemented
 80010dc:	00bfff44 	movi	r2,-3
}
 80010e0:	e037883a 	mov	sp,fp
 80010e4:	df000017 	ldw	fp,0(sp)
 80010e8:	dec00104 	addi	sp,sp,4
 80010ec:	f800283a 	ret

080010f0 <ZEDF9T>:
int ZEDF9T(struct PARSEDCMD *cmds, char resultmessage[], int itfcindex) 		// Handler for F9T GPS
{
 80010f0:	defffc04 	addi	sp,sp,-16
 80010f4:	df000315 	stw	fp,12(sp)
 80010f8:	df000304 	addi	fp,sp,12
 80010fc:	e13fff15 	stw	r4,-4(fp)
 8001100:	e17ffe15 	stw	r5,-8(fp)
 8001104:	e1bffd15 	stw	r6,-12(fp)
	return -3;	// unimplemented
 8001108:	00bfff44 	movi	r2,-3
}
 800110c:	e037883a 	mov	sp,fp
 8001110:	df000017 	ldw	fp,0(sp)
 8001114:	dec00104 	addi	sp,sp,4
 8001118:	f800283a 	ret

0800111c <AD9648>:
int AD9648(struct PARSEDCMD *cmds, char resultmessage[], int itfcindex) 		// Handler for ADC AD9648 SPI interface
{
 800111c:	defffc04 	addi	sp,sp,-16
 8001120:	df000315 	stw	fp,12(sp)
 8001124:	df000304 	addi	fp,sp,12
 8001128:	e13fff15 	stw	r4,-4(fp)
 800112c:	e17ffe15 	stw	r5,-8(fp)
 8001130:	e1bffd15 	stw	r6,-12(fp)
	return -3;	// unimplemented
 8001134:	00bfff44 	movi	r2,-3
}
 8001138:	e037883a 	mov	sp,fp
 800113c:	df000017 	ldw	fp,0(sp)
 8001140:	dec00104 	addi	sp,sp,4
 8001144:	f800283a 	ret

08001148 <ATECC608>:

int ATECC608(struct PARSEDCMD *cmds, char resultmessage[], int itfcindex)
{
 8001148:	deffeb04 	addi	sp,sp,-84
 800114c:	dfc01415 	stw	ra,80(sp)
 8001150:	df001315 	stw	fp,76(sp)
 8001154:	df001304 	addi	fp,sp,76
 8001158:	e13fef15 	stw	r4,-68(fp)
 800115c:	e17fee15 	stw	r5,-72(fp)
 8001160:	e1bfed15 	stw	r6,-76(fp)
	// the device first.

	ALT_AVALON_I2C_DEV_t *i2c_dev; 		//pointer to instance structure
	ALT_AVALON_I2C_STATUS_CODE status;

	i2c_dev = alt_avalon_i2c_open(ItfcTable[itfcindex].name);
 8001164:	e0bfed17 	ldw	r2,-76(fp)
 8001168:	10800a24 	muli	r2,r2,40
 800116c:	10c00304 	addi	r3,r2,12
 8001170:	00820174 	movhi	r2,2053
 8001174:	109d1204 	addi	r2,r2,29768
 8001178:	1885883a 	add	r2,r3,r2
 800117c:	1009883a 	mov	r4,r2
 8001180:	80195800 	call	8019580 <alt_avalon_i2c_open>
 8001184:	e0bfff15 	stw	r2,-4(fp)

	if (NULL==i2c_dev)
 8001188:	e0bfff17 	ldw	r2,-4(fp)
 800118c:	10000c1e 	bne	r2,zero,80011c0 <ATECC608+0x78>
	{
		printf("Device Error: Cannot find: %s\n", ItfcTable[itfcindex].name);
 8001190:	e0bfed17 	ldw	r2,-76(fp)
 8001194:	10800a24 	muli	r2,r2,40
 8001198:	10c00304 	addi	r3,r2,12
 800119c:	00820174 	movhi	r2,2053
 80011a0:	109d1204 	addi	r2,r2,29768
 80011a4:	1885883a 	add	r2,r3,r2
 80011a8:	100b883a 	mov	r5,r2
 80011ac:	01020174 	movhi	r4,2053
 80011b0:	2138d904 	addi	r4,r4,-7324
 80011b4:	80035240 	call	8003524 <printf>
		return -1;
 80011b8:	00bfffc4 	movi	r2,-1
 80011bc:	00009f06 	br	800143c <ATECC608+0x2f4>
	}


   // ATECC Write address (0x61 is the corresponding read addr)
	alt_u32 slave_addr = 0x30;  	  // Right shifted by one bit
 80011c0:	00800c04 	movi	r2,48
 80011c4:	e0bffe15 	stw	r2,-8(fp)

	alt_avalon_i2c_master_target_set(i2c_dev, slave_addr);
 80011c8:	e17ffe17 	ldw	r5,-8(fp)
 80011cc:	e13fff17 	ldw	r4,-4(fp)
 80011d0:	8019d5c0 	call	8019d5c <alt_avalon_i2c_master_target_set>

	if (cmds->cmd[1] == 'R')
 80011d4:	e0bfef17 	ldw	r2,-68(fp)
 80011d8:	10800043 	ldbu	r2,1(r2)
 80011dc:	10803fcc 	andi	r2,r2,255
 80011e0:	1080201c 	xori	r2,r2,128
 80011e4:	10bfe004 	addi	r2,r2,-128
 80011e8:	10801498 	cmpnei	r2,r2,82
 80011ec:	1000891e 	bne	r2,zero,8001414 <ATECC608+0x2cc>
	{

	// wakeup the device from sleep

	alt_u8 txdata = 0x00;
 80011f0:	e03ffac5 	stb	zero,-21(fp)
	alt_u32 count = 0x01;
 80011f4:	00800044 	movi	r2,1
 80011f8:	e0bffd15 	stw	r2,-12(fp)

	status = alt_avalon_i2c_master_tx(i2c_dev, &txdata, count, ALT_AVALON_I2C_NO_INTERRUPTS);
 80011fc:	e0bffac4 	addi	r2,fp,-21
 8001200:	000f883a 	mov	r7,zero
 8001204:	e1bffd17 	ldw	r6,-12(fp)
 8001208:	100b883a 	mov	r5,r2
 800120c:	e13fff17 	ldw	r4,-4(fp)
 8001210:	8019f5c0 	call	8019f5c <alt_avalon_i2c_master_tx>
 8001214:	e0bffc15 	stw	r2,-16(fp)

	// we expect the call to fail, but wake up the ATECC device. Other errors are not OK.

	if (status == ALT_AVALON_I2C_NACK_ERR)
 8001218:	e0bffc17 	ldw	r2,-16(fp)
 800121c:	10bffed8 	cmpnei	r2,r2,-5
 8001220:	1000041e 	bne	r2,zero,8001234 <ATECC608+0xec>
	{
		printf("Received NACK error from ATECC608A device. That's OK\n");
 8001224:	01020174 	movhi	r4,2053
 8001228:	2138e104 	addi	r4,r4,-7292
 800122c:	80036480 	call	8003648 <puts>
 8001230:	00000806 	br	8001254 <ATECC608+0x10c>
	}
	else if (status != ALT_AVALON_I2C_SUCCESS)
 8001234:	e0bffc17 	ldw	r2,-16(fp)
 8001238:	10000626 	beq	r2,zero,8001254 <ATECC608+0x10c>
	{
		printf("i2c_master_tx: ATECC608A wake-up attempt error = %ld\n", status);
 800123c:	e17ffc17 	ldw	r5,-16(fp)
 8001240:	01020174 	movhi	r4,2053
 8001244:	2138ef04 	addi	r4,r4,-7236
 8001248:	80035240 	call	8003524 <printf>
		return -1; //FAIL
 800124c:	00bfffc4 	movi	r2,-1
 8001250:	00007a06 	br	800143c <ATECC608+0x2f4>
	// Each requires writing a command + CRC to the device in the correct zone. Each enables
	// a 4-byte read. All 3 {command+CRC} have been computed externally and are declared
	// as constants in this code.

	alt_u8 rxbuffer[16];
	alt_u32 rxcount = 4;
 8001254:	00800104 	movi	r2,4
 8001258:	e0bffb15 	stw	r2,-20(fp)

	alt_u8 cmd1[8] = { 0x03, 0x07, 0x02, 0x00, 0x00, 0x00, 0x1E, 0x2D } ;  // first four bytes of ID
 800125c:	008000c4 	movi	r2,3
 8001260:	e0bff4c5 	stb	r2,-45(fp)
 8001264:	008001c4 	movi	r2,7
 8001268:	e0bff505 	stb	r2,-44(fp)
 800126c:	00800084 	movi	r2,2
 8001270:	e0bff545 	stb	r2,-43(fp)
 8001274:	e03ff585 	stb	zero,-42(fp)
 8001278:	e03ff5c5 	stb	zero,-41(fp)
 800127c:	e03ff605 	stb	zero,-40(fp)
 8001280:	00800784 	movi	r2,30
 8001284:	e0bff645 	stb	r2,-39(fp)
 8001288:	00800b44 	movi	r2,45
 800128c:	e0bff685 	stb	r2,-38(fp)
	alt_u8 cmd2[8] = { 0x03, 0x07, 0x02, 0x00, 0x02, 0x00, 0x18, 0xAD } ;  // second four bytes of ID
 8001290:	008000c4 	movi	r2,3
 8001294:	e0bff2c5 	stb	r2,-53(fp)
 8001298:	008001c4 	movi	r2,7
 800129c:	e0bff305 	stb	r2,-52(fp)
 80012a0:	00800084 	movi	r2,2
 80012a4:	e0bff345 	stb	r2,-51(fp)
 80012a8:	e03ff385 	stb	zero,-50(fp)
 80012ac:	00800084 	movi	r2,2
 80012b0:	e0bff3c5 	stb	r2,-49(fp)
 80012b4:	e03ff405 	stb	zero,-48(fp)
 80012b8:	00800604 	movi	r2,24
 80012bc:	e0bff445 	stb	r2,-47(fp)
 80012c0:	00bfeb44 	movi	r2,-83
 80012c4:	e0bff485 	stb	r2,-46(fp)
	alt_u8 cmd3[8] = { 0x03, 0x07, 0x02, 0x00, 0x03, 0x00, 0x11, 0x2D } ;  // last byte of ID + 3 don't care bytes
 80012c8:	008000c4 	movi	r2,3
 80012cc:	e0bff0c5 	stb	r2,-61(fp)
 80012d0:	008001c4 	movi	r2,7
 80012d4:	e0bff105 	stb	r2,-60(fp)
 80012d8:	00800084 	movi	r2,2
 80012dc:	e0bff145 	stb	r2,-59(fp)
 80012e0:	e03ff185 	stb	zero,-58(fp)
 80012e4:	008000c4 	movi	r2,3
 80012e8:	e0bff1c5 	stb	r2,-57(fp)
 80012ec:	e03ff205 	stb	zero,-56(fp)
 80012f0:	00800444 	movi	r2,17
 80012f4:	e0bff245 	stb	r2,-55(fp)
 80012f8:	00800b44 	movi	r2,45
 80012fc:	e0bff285 	stb	r2,-54(fp)

	// If the corresponding read is all ones, then the device was not ready and the
	// read needs to be retried.

	// Read the first four bytes of the serial number
	status = alt_avalon_i2c_master_tx(i2c_dev, cmd1, 8, ALT_AVALON_I2C_NO_INTERRUPTS);
 8001300:	e0bff4c4 	addi	r2,fp,-45
 8001304:	000f883a 	mov	r7,zero
 8001308:	01800204 	movi	r6,8
 800130c:	100b883a 	mov	r5,r2
 8001310:	e13fff17 	ldw	r4,-4(fp)
 8001314:	8019f5c0 	call	8019f5c <alt_avalon_i2c_master_tx>
 8001318:	e0bffc15 	stw	r2,-16(fp)
	status = alt_avalon_i2c_master_rx(i2c_dev, rxbuffer, rxcount, ALT_AVALON_I2C_NO_INTERRUPTS);
 800131c:	e0bff6c4 	addi	r2,fp,-37
 8001320:	000f883a 	mov	r7,zero
 8001324:	e1bffb17 	ldw	r6,-20(fp)
 8001328:	100b883a 	mov	r5,r2
 800132c:	e13fff17 	ldw	r4,-4(fp)
 8001330:	801a0440 	call	801a044 <alt_avalon_i2c_master_rx>
 8001334:	e0bffc15 	stw	r2,-16(fp)

	// Test if it returned all ones for the four byes (meaning not ready).
	if ((buffer[0] == 0xFF ) && (buffer[1] == 0xFF) && (buffer[2] == 0xFF) && (buffer[3] == 0xFF))
 8001338:	00820174 	movhi	r2,2053
 800133c:	109b9a03 	ldbu	r2,28264(r2)
 8001340:	10803fcc 	andi	r2,r2,255
 8001344:	10803fd8 	cmpnei	r2,r2,255
 8001348:	1000121e 	bne	r2,zero,8001394 <ATECC608+0x24c>
 800134c:	00820174 	movhi	r2,2053
 8001350:	109b9a43 	ldbu	r2,28265(r2)
 8001354:	10803fcc 	andi	r2,r2,255
 8001358:	10803fd8 	cmpnei	r2,r2,255
 800135c:	10000d1e 	bne	r2,zero,8001394 <ATECC608+0x24c>
 8001360:	00820174 	movhi	r2,2053
 8001364:	109b9a83 	ldbu	r2,28266(r2)
 8001368:	10803fcc 	andi	r2,r2,255
 800136c:	10803fd8 	cmpnei	r2,r2,255
 8001370:	1000081e 	bne	r2,zero,8001394 <ATECC608+0x24c>
 8001374:	00820174 	movhi	r2,2053
 8001378:	109b9ac3 	ldbu	r2,28267(r2)
 800137c:	10803fcc 	andi	r2,r2,255
 8001380:	10803fd8 	cmpnei	r2,r2,255
 8001384:	1000031e 	bne	r2,zero,8001394 <ATECC608+0x24c>
	{
		printf("Rxm Ident PROM not ready\n");
 8001388:	01020174 	movhi	r4,2053
 800138c:	2138fd04 	addi	r4,r4,-7180
 8001390:	80036480 	call	8003648 <puts>
		// probably do some kind of retry with a max count limit
	}

	// Read the second four bytes of the serial number
	status = alt_avalon_i2c_master_tx(i2c_dev, cmd2, 8, ALT_AVALON_I2C_NO_INTERRUPTS);
 8001394:	e0bff2c4 	addi	r2,fp,-53
 8001398:	000f883a 	mov	r7,zero
 800139c:	01800204 	movi	r6,8
 80013a0:	100b883a 	mov	r5,r2
 80013a4:	e13fff17 	ldw	r4,-4(fp)
 80013a8:	8019f5c0 	call	8019f5c <alt_avalon_i2c_master_tx>
 80013ac:	e0bffc15 	stw	r2,-16(fp)
	status = alt_avalon_i2c_master_rx(i2c_dev, &rxbuffer[4], rxcount, ALT_AVALON_I2C_NO_INTERRUPTS);
 80013b0:	e0bff6c4 	addi	r2,fp,-37
 80013b4:	10800104 	addi	r2,r2,4
 80013b8:	000f883a 	mov	r7,zero
 80013bc:	e1bffb17 	ldw	r6,-20(fp)
 80013c0:	100b883a 	mov	r5,r2
 80013c4:	e13fff17 	ldw	r4,-4(fp)
 80013c8:	801a0440 	call	801a044 <alt_avalon_i2c_master_rx>
 80013cc:	e0bffc15 	stw	r2,-16(fp)

	// Read the third four bytes of the serial number
	status = alt_avalon_i2c_master_tx(i2c_dev, cmd3, 8, ALT_AVALON_I2C_NO_INTERRUPTS);
 80013d0:	e0bff0c4 	addi	r2,fp,-61
 80013d4:	000f883a 	mov	r7,zero
 80013d8:	01800204 	movi	r6,8
 80013dc:	100b883a 	mov	r5,r2
 80013e0:	e13fff17 	ldw	r4,-4(fp)
 80013e4:	8019f5c0 	call	8019f5c <alt_avalon_i2c_master_tx>
 80013e8:	e0bffc15 	stw	r2,-16(fp)
	status = alt_avalon_i2c_master_rx(i2c_dev, &rxbuffer[8], rxcount, ALT_AVALON_I2C_NO_INTERRUPTS);
 80013ec:	e0bff6c4 	addi	r2,fp,-37
 80013f0:	10800204 	addi	r2,r2,8
 80013f4:	000f883a 	mov	r7,zero
 80013f8:	e1bffb17 	ldw	r6,-20(fp)
 80013fc:	100b883a 	mov	r5,r2
 8001400:	e13fff17 	ldw	r4,-4(fp)
 8001404:	801a0440 	call	801a044 <alt_avalon_i2c_master_rx>
 8001408:	e0bffc15 	stw	r2,-16(fp)

	// turn the results into a readable string

	return 1;		// OK - don't return AK string , instead return the string we define (RR ....)
 800140c:	00800044 	movi	r2,1
 8001410:	00000a06 	br	800143c <ATECC608+0x2f4>
	}
	if (cmds->cmd[1] == 'W')
 8001414:	e0bfef17 	ldw	r2,-68(fp)
 8001418:	10800043 	ldbu	r2,1(r2)
 800141c:	10803fcc 	andi	r2,r2,255
 8001420:	1080201c 	xori	r2,r2,128
 8001424:	10bfe004 	addi	r2,r2,-128
 8001428:	108015d8 	cmpnei	r2,r2,87
 800142c:	1000021e 	bne	r2,zero,8001438 <ATECC608+0x2f0>
	{

		return -3;	// unimplemented
 8001430:	00bfff44 	movi	r2,-3
 8001434:	00000106 	br	800143c <ATECC608+0x2f4>
	}

	return -1;		// unknown command
 8001438:	00bfffc4 	movi	r2,-1
}
 800143c:	e037883a 	mov	sp,fp
 8001440:	dfc00117 	ldw	ra,4(sp)
 8001444:	df000017 	ldw	fp,0(sp)
 8001448:	dec00204 	addi	sp,sp,8
 800144c:	f800283a 	ret

08001450 <PCF8574>:


int PCF8574(struct PARSEDCMD *cmds, char resultmessage[], int itfcindex)
{
 8001450:	defff604 	addi	sp,sp,-40
 8001454:	dfc00915 	stw	ra,36(sp)
 8001458:	df000815 	stw	fp,32(sp)
 800145c:	df000804 	addi	fp,sp,32
 8001460:	e13ffa15 	stw	r4,-24(fp)
 8001464:	e17ff915 	stw	r5,-28(fp)
 8001468:	e1bff815 	stw	r6,-32(fp)
	// TI PCF8574 8-bit I/O latch and driver.

	ALT_AVALON_I2C_DEV_t *i2c_dev; 		//pointer to instance structure
	ALT_AVALON_I2C_STATUS_CODE status;

	i2c_dev = alt_avalon_i2c_open(ItfcTable[itfcindex].name);
 800146c:	e0bff817 	ldw	r2,-32(fp)
 8001470:	10800a24 	muli	r2,r2,40
 8001474:	10c00304 	addi	r3,r2,12
 8001478:	00820174 	movhi	r2,2053
 800147c:	109d1204 	addi	r2,r2,29768
 8001480:	1885883a 	add	r2,r3,r2
 8001484:	1009883a 	mov	r4,r2
 8001488:	80195800 	call	8019580 <alt_avalon_i2c_open>
 800148c:	e0bffe15 	stw	r2,-8(fp)

	if (NULL==i2c_dev)
 8001490:	e0bffe17 	ldw	r2,-8(fp)
 8001494:	10000c1e 	bne	r2,zero,80014c8 <PCF8574+0x78>
	{
		printf("Device Error: Cannot find: %s\n", ItfcTable[itfcindex].name);
 8001498:	e0bff817 	ldw	r2,-32(fp)
 800149c:	10800a24 	muli	r2,r2,40
 80014a0:	10c00304 	addi	r3,r2,12
 80014a4:	00820174 	movhi	r2,2053
 80014a8:	109d1204 	addi	r2,r2,29768
 80014ac:	1885883a 	add	r2,r3,r2
 80014b0:	100b883a 	mov	r5,r2
 80014b4:	01020174 	movhi	r4,2053
 80014b8:	2138d904 	addi	r4,r4,-7324
 80014bc:	80035240 	call	8003524 <printf>
		return -1;
 80014c0:	00bfffc4 	movi	r2,-1
 80014c4:	00003906 	br	80015ac <PCF8574+0x15c>
	}

	// PCF8574 Write address is 0x70, 0x71 is the corresponding read addr.
	alt_u32 slave_addr = 0x38;  	  // PCF8574 address - the i2c driver left shifts then appends 0 for
 80014c8:	00800e04 	movi	r2,56
 80014cc:	e0bffd15 	stw	r2,-12(fp)
									  // write or 1 for read translating this to 0x70 for write, 0x71 for read
	alt_avalon_i2c_master_target_set(i2c_dev, slave_addr);
 80014d0:	e17ffd17 	ldw	r5,-12(fp)
 80014d4:	e13ffe17 	ldw	r4,-8(fp)
 80014d8:	8019d5c0 	call	8019d5c <alt_avalon_i2c_master_target_set>


	if (cmds->cmd[1] == 'W')
 80014dc:	e0bffa17 	ldw	r2,-24(fp)
 80014e0:	10800043 	ldbu	r2,1(r2)
 80014e4:	10803fcc 	andi	r2,r2,255
 80014e8:	1080201c 	xori	r2,r2,128
 80014ec:	10bfe004 	addi	r2,r2,-128
 80014f0:	108015d8 	cmpnei	r2,r2,87
 80014f4:	1000231e 	bne	r2,zero,8001584 <PCF8574+0x134>
	{
		alt_u8 txdata = cmds->data;
 80014f8:	e0bffa17 	ldw	r2,-24(fp)
 80014fc:	10800917 	ldw	r2,36(r2)
 8001500:	e0bffbc5 	stb	r2,-17(fp)
		alt_u32 count = 0x01;				// num bytes to send
 8001504:	00800044 	movi	r2,1
 8001508:	e0bffc15 	stw	r2,-16(fp)
		// Receive Module. All data are ACTIVE LOW.
		// Bit7 = Red LED   		Bit6 = Green LED  		Bit5 = Ch2 20dB Atten  	Bit4 = Ch2 10 dB Atten
		// Bit3 = Ch2 Noise Enable 	Bit2 = Ch1 20 dB Atten  Bit1 = Ch1 10 dB Atten  Bit0 = Ch1 Noise Enable


		status = alt_avalon_i2c_master_tx(i2c_dev, &txdata, count, ALT_AVALON_I2C_NO_INTERRUPTS);
 800150c:	e0bffbc4 	addi	r2,fp,-17
 8001510:	000f883a 	mov	r7,zero
 8001514:	e1bffc17 	ldw	r6,-16(fp)
 8001518:	100b883a 	mov	r5,r2
 800151c:	e13ffe17 	ldw	r4,-8(fp)
 8001520:	8019f5c0 	call	8019f5c <alt_avalon_i2c_master_tx>
 8001524:	e0bfff15 	stw	r2,-4(fp)

		if (status == ALT_AVALON_I2C_NACK_ERR)		// retry the write
 8001528:	e0bfff17 	ldw	r2,-4(fp)
 800152c:	10bffed8 	cmpnei	r2,r2,-5
 8001530:	10000a1e 	bne	r2,zero,800155c <PCF8574+0x10c>
		{
			printf("Received NACK error from I2C device. Retry once\n");
 8001534:	01020174 	movhi	r4,2053
 8001538:	21390404 	addi	r4,r4,-7152
 800153c:	80036480 	call	8003648 <puts>
			status = alt_avalon_i2c_master_tx(i2c_dev, &txdata, count, ALT_AVALON_I2C_NO_INTERRUPTS);
 8001540:	e0bffbc4 	addi	r2,fp,-17
 8001544:	000f883a 	mov	r7,zero
 8001548:	e1bffc17 	ldw	r6,-16(fp)
 800154c:	100b883a 	mov	r5,r2
 8001550:	e13ffe17 	ldw	r4,-8(fp)
 8001554:	8019f5c0 	call	8019f5c <alt_avalon_i2c_master_tx>
 8001558:	e0bfff15 	stw	r2,-4(fp)
		}


		if (status != ALT_AVALON_I2C_SUCCESS)
 800155c:	e0bfff17 	ldw	r2,-4(fp)
 8001560:	10000626 	beq	r2,zero,800157c <PCF8574+0x12c>
		{
			printf("i2c_master_tx: error = %ld\n", status);
 8001564:	e17fff17 	ldw	r5,-4(fp)
 8001568:	01020174 	movhi	r4,2053
 800156c:	21391004 	addi	r4,r4,-7104
 8001570:	80035240 	call	8003524 <printf>
			return -1; //FAIL
 8001574:	00bfffc4 	movi	r2,-1
 8001578:	00000c06 	br	80015ac <PCF8574+0x15c>
		}

		return 0;		// OK
 800157c:	0005883a 	mov	r2,zero
 8001580:	00000a06 	br	80015ac <PCF8574+0x15c>


	}
	if (cmds->cmd[1] == 'R')
 8001584:	e0bffa17 	ldw	r2,-24(fp)
 8001588:	10800043 	ldbu	r2,1(r2)
 800158c:	10803fcc 	andi	r2,r2,255
 8001590:	1080201c 	xori	r2,r2,128
 8001594:	10bfe004 	addi	r2,r2,-128
 8001598:	10801498 	cmpnei	r2,r2,82
 800159c:	1000021e 	bne	r2,zero,80015a8 <PCF8574+0x158>
	{
		return -3;	// not yet implemented
 80015a0:	00bfff44 	movi	r2,-3
 80015a4:	00000106 	br	80015ac <PCF8574+0x15c>
	}
	return -1;		// unknown command type
 80015a8:	00bfffc4 	movi	r2,-1
}
 80015ac:	e037883a 	mov	sp,fp
 80015b0:	dfc00117 	ldw	ra,4(sp)
 80015b4:	df000017 	ldw	fp,0(sp)
 80015b8:	dec00204 	addi	sp,sp,8
 80015bc:	f800283a 	ret

080015c0 <ProvisioningModuleRegisterCommand>:


int ProvisioningModuleRegisterCommand(int index, unsigned char buffer [], char resultmessage[])
{
 80015c0:	deffe504 	addi	sp,sp,-108
 80015c4:	dfc01a15 	stw	ra,104(sp)
 80015c8:	df001915 	stw	fp,100(sp)
 80015cc:	df001904 	addi	fp,sp,100
 80015d0:	e13fe915 	stw	r4,-92(fp)
 80015d4:	e17fe815 	stw	r5,-96(fp)
 80015d8:	e1bfe715 	stw	r6,-100(fp)
	// Module Read:  MR 0xssss 0xiiii 0xaaaa
	// Module Write: MW 0xssss 0xiiii 0xaaaa 0xZZZZ

	struct PARSEDCMD provcmd;		// hold the parsed provisioning command

	char * cmd = strtok((char *)buffer, " ");
 80015dc:	01420174 	movhi	r5,2053
 80015e0:	29791704 	addi	r5,r5,-7076
 80015e4:	e13fe817 	ldw	r4,-96(fp)
 80015e8:	8003e080 	call	8003e08 <strtok>
 80015ec:	e0bffe15 	stw	r2,-8(fp)
	char * module = strtok(NULL, " ");
 80015f0:	01420174 	movhi	r5,2053
 80015f4:	29791704 	addi	r5,r5,-7076
 80015f8:	0009883a 	mov	r4,zero
 80015fc:	8003e080 	call	8003e08 <strtok>
 8001600:	e0bffd15 	stw	r2,-12(fp)
	char * slot = strtok(NULL, " ");
 8001604:	01420174 	movhi	r5,2053
 8001608:	29791704 	addi	r5,r5,-7076
 800160c:	0009883a 	mov	r4,zero
 8001610:	8003e080 	call	8003e08 <strtok>
 8001614:	e0bffc15 	stw	r2,-16(fp)
	char * regaddr = strtok(NULL, " ");
 8001618:	01420174 	movhi	r5,2053
 800161c:	29791704 	addi	r5,r5,-7076
 8001620:	0009883a 	mov	r4,zero
 8001624:	8003e080 	call	8003e08 <strtok>
 8001628:	e0bffb15 	stw	r2,-20(fp)
	char * regdata = strtok(NULL, " ");
 800162c:	01420174 	movhi	r5,2053
 8001630:	29791704 	addi	r5,r5,-7076
 8001634:	0009883a 	mov	r4,zero
 8001638:	8003e080 	call	8003e08 <strtok>
 800163c:	e0bffa15 	stw	r2,-24(fp)

	unsigned long moduleint, itfcint, regaddrint, regdataint;

	char * ptr;		// dummy used to make strtoul work

	moduleint = strtoul(module, &ptr, 0);
 8001640:	e0bfea04 	addi	r2,fp,-88
 8001644:	000d883a 	mov	r6,zero
 8001648:	100b883a 	mov	r5,r2
 800164c:	e13ffd17 	ldw	r4,-12(fp)
 8001650:	80041300 	call	8004130 <strtoul>
 8001654:	e0bff915 	stw	r2,-28(fp)
	itfcint = strtoul(slot, &ptr, 0);
 8001658:	e0bfea04 	addi	r2,fp,-88
 800165c:	000d883a 	mov	r6,zero
 8001660:	100b883a 	mov	r5,r2
 8001664:	e13ffc17 	ldw	r4,-16(fp)
 8001668:	80041300 	call	8004130 <strtoul>
 800166c:	e0bff815 	stw	r2,-32(fp)
	regaddrint = strtoul(regaddr, &ptr, 0);
 8001670:	e0bfea04 	addi	r2,fp,-88
 8001674:	000d883a 	mov	r6,zero
 8001678:	100b883a 	mov	r5,r2
 800167c:	e13ffb17 	ldw	r4,-20(fp)
 8001680:	80041300 	call	8004130 <strtoul>
 8001684:	e0bff715 	stw	r2,-36(fp)
	if (regdata != NULL)
 8001688:	e0bffa17 	ldw	r2,-24(fp)
 800168c:	10000726 	beq	r2,zero,80016ac <ProvisioningModuleRegisterCommand+0xec>
		regdataint = strtoul(regdata, &ptr, 0);
 8001690:	e0bfea04 	addi	r2,fp,-88
 8001694:	000d883a 	mov	r6,zero
 8001698:	100b883a 	mov	r5,r2
 800169c:	e13ffa17 	ldw	r4,-24(fp)
 80016a0:	80041300 	call	8004130 <strtoul>
 80016a4:	e0bfff15 	stw	r2,-4(fp)
 80016a8:	00000106 	br	80016b0 <ProvisioningModuleRegisterCommand+0xf0>
	else
		regdataint = 0;
 80016ac:	e03fff15 	stw	zero,-4(fp)

	// copy parsed command into struct
	strcpy(provcmd.cmd, cmd);
 80016b0:	e0bfeb04 	addi	r2,fp,-84
 80016b4:	e17ffe17 	ldw	r5,-8(fp)
 80016b8:	1009883a 	mov	r4,r2
 80016bc:	80036580 	call	8003658 <strcpy>
	provcmd.module = moduleint;
 80016c0:	e0bff917 	ldw	r2,-28(fp)
 80016c4:	e0bff115 	stw	r2,-60(fp)
	provcmd.interface = itfcint;
 80016c8:	e0bff817 	ldw	r2,-32(fp)
 80016cc:	e0bff215 	stw	r2,-56(fp)
	provcmd.data = regdataint;
 80016d0:	e0bfff17 	ldw	r2,-4(fp)
 80016d4:	e0bff415 	stw	r2,-48(fp)
	provcmd.address = regaddrint;
 80016d8:	e0bff717 	ldw	r2,-36(fp)
 80016dc:	e0bff315 	stw	r2,-52(fp)
	// TODO
	// TODO - refactor the handler to take &provcmd rather than buffer and regdataint
	// TODO


	int itfcindex = FindItfcIndex(moduleint, itfcint);	// Find index of requested interface in map
 80016e0:	e0bff917 	ldw	r2,-28(fp)
 80016e4:	e0fff817 	ldw	r3,-32(fp)
 80016e8:	180b883a 	mov	r5,r3
 80016ec:	1009883a 	mov	r4,r2
 80016f0:	8001a300 	call	8001a30 <FindItfcIndex>
 80016f4:	e0bff615 	stw	r2,-40(fp)

	if (itfcindex == -1)	// Not found
 80016f8:	e0bff617 	ldw	r2,-40(fp)
 80016fc:	10bfffd8 	cmpnei	r2,r2,-1
 8001700:	1000021e 	bne	r2,zero,800170c <ProvisioningModuleRegisterCommand+0x14c>
		return -1;		// Unknown Module / Slot combination.  Send NAK.
 8001704:	00bfffc4 	movi	r2,-1
 8001708:	00000c06 	br	800173c <ProvisioningModuleRegisterCommand+0x17c>
	// Call the proper device handler. The handler returns:
	//		status < 0 for error, send NAK
	//		status == 0 for success, send AK
	//      status == +1 send AK then send response message defined by the handler back to the Local Host.

	int result = (*ItfcTable[itfcindex].handler)(&provcmd, resultmessage, itfcindex);
 800170c:	e0bff617 	ldw	r2,-40(fp)
 8001710:	10c00a24 	muli	r3,r2,40
 8001714:	00820174 	movhi	r2,2053
 8001718:	1885883a 	add	r2,r3,r2
 800171c:	109d1b17 	ldw	r2,29804(r2)
 8001720:	e0ffeb04 	addi	r3,fp,-84
 8001724:	e1bff617 	ldw	r6,-40(fp)
 8001728:	e17fe717 	ldw	r5,-100(fp)
 800172c:	1809883a 	mov	r4,r3
 8001730:	103ee83a 	callr	r2
 8001734:	e0bff515 	stw	r2,-44(fp)

	return result;
 8001738:	e0bff517 	ldw	r2,-44(fp)
};
 800173c:	e037883a 	mov	sp,fp
 8001740:	dfc00117 	ldw	ra,4(sp)
 8001744:	df000017 	ldw	fp,0(sp)
 8001748:	dec00204 	addi	sp,sp,8
 800174c:	f800283a 	ret

08001750 <initItfcMap>:
 *
 */

// Initialize the Interface Map Table.
void initItfcMap()
{
 8001750:	deffff04 	addi	sp,sp,-4
 8001754:	df000015 	stw	fp,0(sp)
 8001758:	d839883a 	mov	fp,sp
	ItfcTable[0].module = 0;	// CKM_C0
 800175c:	00820174 	movhi	r2,2053
 8001760:	101d1215 	stw	zero,29768(r2)
	ItfcTable[0].interface = 0;
 8001764:	00820174 	movhi	r2,2053
 8001768:	101d1315 	stw	zero,29772(r2)
	ItfcTable[0].base = I2C_CKM_C0_BASE;
 800176c:	00860034 	movhi	r2,6144
 8001770:	108f6004 	addi	r2,r2,15744
 8001774:	00c20174 	movhi	r3,2053
 8001778:	189d1415 	stw	r2,29776(r3)
	strcpy(&ItfcTable[0].name[0], I2C_CKM_C0_NAME);
 800177c:	009d9974 	movhi	r2,30309
 8001780:	10990bc4 	addi	r2,r2,25647
 8001784:	00c20174 	movhi	r3,2053
 8001788:	189d1515 	stw	r2,29780(r3)
 800178c:	0098ccb4 	movhi	r2,25394
 8001790:	109a4bc4 	addi	r2,r2,26927
 8001794:	00c20174 	movhi	r3,2053
 8001798:	189d1615 	stw	r2,29784(r3)
 800179c:	009b5af4 	movhi	r2,28011
 80017a0:	1098d7c4 	addi	r2,r2,25439
 80017a4:	00c20174 	movhi	r3,2053
 80017a8:	189d1715 	stw	r2,29788(r3)
 80017ac:	00800c34 	movhi	r2,48
 80017b0:	1098d7c4 	addi	r2,r2,25439
 80017b4:	00c20174 	movhi	r3,2053
 80017b8:	189d1815 	stw	r2,29792(r3)
	ItfcTable[0].handler = SI5345;
 80017bc:	00820034 	movhi	r2,2048
 80017c0:	10843104 	addi	r2,r2,4292
 80017c4:	00c20174 	movhi	r3,2053
 80017c8:	189d1b15 	stw	r2,29804(r3)

	ItfcTable[1].module = 0;	// CKM_C0
 80017cc:	00820174 	movhi	r2,2053
 80017d0:	101d1c15 	stw	zero,29808(r2)
	ItfcTable[1].interface = 1;
 80017d4:	00c00044 	movi	r3,1
 80017d8:	00820174 	movhi	r2,2053
 80017dc:	10dd1d15 	stw	r3,29812(r2)
	ItfcTable[1].base = I2C_CKM_C0_BASE;
 80017e0:	00860034 	movhi	r2,6144
 80017e4:	108f6004 	addi	r2,r2,15744
 80017e8:	00c20174 	movhi	r3,2053
 80017ec:	189d1e15 	stw	r2,29816(r3)
	strcpy(&ItfcTable[1].name[0], I2C_CKM_C0_NAME);
 80017f0:	009d9974 	movhi	r2,30309
 80017f4:	10990bc4 	addi	r2,r2,25647
 80017f8:	00c20174 	movhi	r3,2053
 80017fc:	189d1f15 	stw	r2,29820(r3)
 8001800:	0098ccb4 	movhi	r2,25394
 8001804:	109a4bc4 	addi	r2,r2,26927
 8001808:	00c20174 	movhi	r3,2053
 800180c:	189d2015 	stw	r2,29824(r3)
 8001810:	009b5af4 	movhi	r2,28011
 8001814:	1098d7c4 	addi	r2,r2,25439
 8001818:	00c20174 	movhi	r3,2053
 800181c:	189d2115 	stw	r2,29828(r3)
 8001820:	00800c34 	movhi	r2,48
 8001824:	1098d7c4 	addi	r2,r2,25439
 8001828:	00c20174 	movhi	r3,2053
 800182c:	189d2215 	stw	r2,29832(r3)
	ItfcTable[1].handler = ZEDF9T;
 8001830:	00820034 	movhi	r2,2048
 8001834:	10843c04 	addi	r2,r2,4336
 8001838:	00c20174 	movhi	r3,2053
 800183c:	189d2515 	stw	r2,29844(r3)
//	ItfcTable[1].interface = 1;
//	ItfcTable[1].base = I2C_CKM_C1_BASE;
//	strcpy(&ItfcTable[1].name[0], I2C_CKM_C1_NAME);
//	ItfcTable[1].handler = 2;

	ItfcTable[2].module = 0;	// CKM_ID
 8001840:	00820174 	movhi	r2,2053
 8001844:	101d2615 	stw	zero,29848(r2)
	ItfcTable[2].interface = 2;
 8001848:	00c00084 	movi	r3,2
 800184c:	00820174 	movhi	r2,2053
 8001850:	10dd2715 	stw	r3,29852(r2)
	ItfcTable[2].base = I2C_CKM_ID_BASE;
 8001854:	00860034 	movhi	r2,6144
 8001858:	108f7004 	addi	r2,r2,15808
 800185c:	00c20174 	movhi	r3,2053
 8001860:	189d2815 	stw	r2,29856(r3)
	strcpy(&ItfcTable[2].name[0], I2C_CKM_ID_NAME);
 8001864:	009d9974 	movhi	r2,30309
 8001868:	10990bc4 	addi	r2,r2,25647
 800186c:	00c20174 	movhi	r3,2053
 8001870:	189d2915 	stw	r2,29860(r3)
 8001874:	0098ccb4 	movhi	r2,25394
 8001878:	109a4bc4 	addi	r2,r2,26927
 800187c:	00c20174 	movhi	r3,2053
 8001880:	189d2a15 	stw	r2,29864(r3)
 8001884:	009b5af4 	movhi	r2,28011
 8001888:	1098d7c4 	addi	r2,r2,25439
 800188c:	00c20174 	movhi	r3,2053
 8001890:	189d2b15 	stw	r2,29868(r3)
 8001894:	00801934 	movhi	r2,100
 8001898:	109a57c4 	addi	r2,r2,26975
 800189c:	00c20174 	movhi	r3,2053
 80018a0:	189d2c15 	stw	r2,29872(r3)
	ItfcTable[2].handler = ATECC608;
 80018a4:	00820034 	movhi	r2,2048
 80018a8:	10845204 	addi	r2,r2,4424
 80018ac:	00c20174 	movhi	r3,2053
 80018b0:	189d2f15 	stw	r2,29884(r3)

	ItfcTable[3].module = 1;	// RXM_CTRL
 80018b4:	00c00044 	movi	r3,1
 80018b8:	00820174 	movhi	r2,2053
 80018bc:	10dd3015 	stw	r3,29888(r2)
	ItfcTable[3].interface = 0;
 80018c0:	00820174 	movhi	r2,2053
 80018c4:	101d3115 	stw	zero,29892(r2)
	ItfcTable[3].base = I2C_RXM_CTRL_BASE;
 80018c8:	00860034 	movhi	r2,6144
 80018cc:	108f8004 	addi	r2,r2,15872
 80018d0:	00c20174 	movhi	r3,2053
 80018d4:	189d3215 	stw	r2,29896(r3)
	strcpy(&ItfcTable[3].name[0], I2C_RXM_CTRL_NAME);
 80018d8:	009d9974 	movhi	r2,30309
 80018dc:	10990bc4 	addi	r2,r2,25647
 80018e0:	00c20174 	movhi	r3,2053
 80018e4:	189d3315 	stw	r2,29900(r3)
 80018e8:	0098ccb4 	movhi	r2,25394
 80018ec:	109a4bc4 	addi	r2,r2,26927
 80018f0:	00c20174 	movhi	r3,2053
 80018f4:	189d3415 	stw	r2,29904(r3)
 80018f8:	009b5e34 	movhi	r2,28024
 80018fc:	109c97c4 	addi	r2,r2,29279
 8001900:	00c20174 	movhi	r3,2053
 8001904:	189d3515 	stw	r2,29908(r3)
 8001908:	009c9d34 	movhi	r2,29300
 800190c:	1098d7c4 	addi	r2,r2,25439
 8001910:	00c20174 	movhi	r3,2053
 8001914:	189d3615 	stw	r2,29912(r3)
 8001918:	00c01b04 	movi	r3,108
 800191c:	00820174 	movhi	r2,2053
 8001920:	10dd370d 	sth	r3,29916(r2)
	ItfcTable[3].handler = PCF8574;
 8001924:	00820034 	movhi	r2,2048
 8001928:	10851404 	addi	r2,r2,5200
 800192c:	00c20174 	movhi	r3,2053
 8001930:	189d3915 	stw	r2,29924(r3)

	ItfcTable[4].module = 1;	// RXM_ID
 8001934:	00c00044 	movi	r3,1
 8001938:	00820174 	movhi	r2,2053
 800193c:	10dd3a15 	stw	r3,29928(r2)
	ItfcTable[4].interface = 1;
 8001940:	00c00044 	movi	r3,1
 8001944:	00820174 	movhi	r2,2053
 8001948:	10dd3b15 	stw	r3,29932(r2)
	ItfcTable[4].base = I2C_RXM_ID_BASE;
 800194c:	00860034 	movhi	r2,6144
 8001950:	108f9004 	addi	r2,r2,15936
 8001954:	00c20174 	movhi	r3,2053
 8001958:	189d3c15 	stw	r2,29936(r3)
	strcpy(&ItfcTable[4].name[0], I2C_RXM_ID_NAME);
 800195c:	009d9974 	movhi	r2,30309
 8001960:	10990bc4 	addi	r2,r2,25647
 8001964:	00c20174 	movhi	r3,2053
 8001968:	189d3d15 	stw	r2,29940(r3)
 800196c:	0098ccb4 	movhi	r2,25394
 8001970:	109a4bc4 	addi	r2,r2,26927
 8001974:	00c20174 	movhi	r3,2053
 8001978:	189d3e15 	stw	r2,29944(r3)
 800197c:	009b5e34 	movhi	r2,28024
 8001980:	109c97c4 	addi	r2,r2,29279
 8001984:	00c20174 	movhi	r3,2053
 8001988:	189d3f15 	stw	r2,29948(r3)
 800198c:	00801934 	movhi	r2,100
 8001990:	109a57c4 	addi	r2,r2,26975
 8001994:	00c20174 	movhi	r3,2053
 8001998:	189d4015 	stw	r2,29952(r3)
	ItfcTable[4].handler = ATECC608;
 800199c:	00820034 	movhi	r2,2048
 80019a0:	10845204 	addi	r2,r2,4424
 80019a4:	00c20174 	movhi	r3,2053
 80019a8:	189d4315 	stw	r2,29964(r3)

	ItfcTable[5].module = 1;	// RXM_SPI_ADC
 80019ac:	00c00044 	movi	r3,1
 80019b0:	00820174 	movhi	r2,2053
 80019b4:	10dd4415 	stw	r3,29968(r2)
	ItfcTable[5].interface = 2;
 80019b8:	00c00084 	movi	r3,2
 80019bc:	00820174 	movhi	r2,2053
 80019c0:	10dd4515 	stw	r3,29972(r2)
	ItfcTable[5].base = SPI_RXM_BASE;
 80019c4:	00860034 	movhi	r2,6144
 80019c8:	108fb804 	addi	r2,r2,16096
 80019cc:	00c20174 	movhi	r3,2053
 80019d0:	189d4615 	stw	r2,29976(r3)
	strcpy(&ItfcTable[5].name[0], SPI_RXM_NAME);
 80019d4:	009d9974 	movhi	r2,30309
 80019d8:	10990bc4 	addi	r2,r2,25647
 80019dc:	00c20174 	movhi	r3,2053
 80019e0:	189d4715 	stw	r2,29980(r3)
 80019e4:	009a5c34 	movhi	r2,26992
 80019e8:	109ccbc4 	addi	r2,r2,29487
 80019ec:	00c20174 	movhi	r3,2053
 80019f0:	189d4815 	stw	r2,29984(r3)
 80019f4:	009b5e34 	movhi	r2,28024
 80019f8:	109c97c4 	addi	r2,r2,29279
 80019fc:	00c20174 	movhi	r3,2053
 8001a00:	189d4915 	stw	r2,29988(r3)
 8001a04:	00820174 	movhi	r2,2053
 8001a08:	101d4a05 	stb	zero,29992(r2)
	ItfcTable[5].handler = AD9648;
 8001a0c:	00820034 	movhi	r2,2048
 8001a10:	10844704 	addi	r2,r2,4380
 8001a14:	00c20174 	movhi	r3,2053
 8001a18:	189d4d15 	stw	r2,30004(r3)
};
 8001a1c:	0001883a 	nop
 8001a20:	e037883a 	mov	sp,fp
 8001a24:	df000017 	ldw	fp,0(sp)
 8001a28:	dec00104 	addi	sp,sp,4
 8001a2c:	f800283a 	ret

08001a30 <FindItfcIndex>:

// Find the index of the Module / Interface in the Interface Map table
int FindItfcIndex(int module, int itfcnum)
{
 8001a30:	defffc04 	addi	sp,sp,-16
 8001a34:	df000315 	stw	fp,12(sp)
 8001a38:	df000304 	addi	fp,sp,12
 8001a3c:	e13ffe15 	stw	r4,-8(fp)
 8001a40:	e17ffd15 	stw	r5,-12(fp)
	for (int i=0; i< MAXITFC; i++)		if ((module == ItfcTable[i].module) && (itfcnum == ItfcTable[i].interface))
 8001a44:	e03fff15 	stw	zero,-4(fp)
 8001a48:	00001306 	br	8001a98 <FindItfcIndex+0x68>
 8001a4c:	e0bfff17 	ldw	r2,-4(fp)
 8001a50:	10c00a24 	muli	r3,r2,40
 8001a54:	00820174 	movhi	r2,2053
 8001a58:	1885883a 	add	r2,r3,r2
 8001a5c:	10dd1217 	ldw	r3,29768(r2)
 8001a60:	e0bffe17 	ldw	r2,-8(fp)
 8001a64:	1880091e 	bne	r3,r2,8001a8c <FindItfcIndex+0x5c>
 8001a68:	e0bfff17 	ldw	r2,-4(fp)
 8001a6c:	10c00a24 	muli	r3,r2,40
 8001a70:	00820174 	movhi	r2,2053
 8001a74:	1885883a 	add	r2,r3,r2
 8001a78:	10dd1317 	ldw	r3,29772(r2)
 8001a7c:	e0bffd17 	ldw	r2,-12(fp)
 8001a80:	1880021e 	bne	r3,r2,8001a8c <FindItfcIndex+0x5c>
			return i;
 8001a84:	e0bfff17 	ldw	r2,-4(fp)
 8001a88:	00000706 	br	8001aa8 <FindItfcIndex+0x78>
	for (int i=0; i< MAXITFC; i++)		if ((module == ItfcTable[i].module) && (itfcnum == ItfcTable[i].interface))
 8001a8c:	e0bfff17 	ldw	r2,-4(fp)
 8001a90:	10800044 	addi	r2,r2,1
 8001a94:	e0bfff15 	stw	r2,-4(fp)
 8001a98:	e0bfff17 	ldw	r2,-4(fp)
 8001a9c:	10800190 	cmplti	r2,r2,6
 8001aa0:	103fea1e 	bne	r2,zero,8001a4c <FindItfcIndex+0x1c>

	return -1;	// Didn't find it in the table
 8001aa4:	00bfffc4 	movi	r2,-1
};
 8001aa8:	e037883a 	mov	sp,fp
 8001aac:	df000017 	ldw	fp,0(sp)
 8001ab0:	dec00104 	addi	sp,sp,4
 8001ab4:	f800283a 	ret

08001ab8 <alt_uCOSIIErrorHandler>:
#include <errno.h>
#include "includes.h"
#include "alt_error_handler.h"
 
void alt_uCOSIIErrorHandler(INT8U error_code, void *expanded_diagnosis_ptr)
{
 8001ab8:	defffb04 	addi	sp,sp,-20
 8001abc:	dfc00415 	stw	ra,16(sp)
 8001ac0:	df000315 	stw	fp,12(sp)
 8001ac4:	df000304 	addi	fp,sp,12
 8001ac8:	2005883a 	mov	r2,r4
 8001acc:	e17ffd15 	stw	r5,-12(fp)
 8001ad0:	e0bffe05 	stb	r2,-8(fp)
   FAULT_LEVEL fault_level;
   
   if(error_code == OS_NO_ERR)
 8001ad4:	e0bffe03 	ldbu	r2,-8(fp)
 8001ad8:	10019826 	beq	r2,zero,800213c <alt_uCOSIIErrorHandler+0x684>
   {
      return;
   }
   
   fault_level = SYSTEM;  
 8001adc:	00800084 	movi	r2,2
 8001ae0:	e0bfff15 	stw	r2,-4(fp)
   OSSchedLock();  /* Disable Task Switching but still service other IRQs */
 8001ae4:	80120000 	call	8012000 <OSSchedLock>
      
   switch (error_code)
 8001ae8:	e0bffe03 	ldbu	r2,-8(fp)
 8001aec:	10c01948 	cmpgei	r3,r2,101
 8001af0:	18006d1e 	bne	r3,zero,8001ca8 <alt_uCOSIIErrorHandler+0x1f0>
 8001af4:	0081120e 	bge	zero,r2,8001f40 <alt_uCOSIIErrorHandler+0x488>
 8001af8:	10c01968 	cmpgeui	r3,r2,101
 8001afc:	1801101e 	bne	r3,zero,8001f40 <alt_uCOSIIErrorHandler+0x488>
 8001b00:	100690ba 	slli	r3,r2,2
 8001b04:	00820034 	movhi	r2,2048
 8001b08:	1885883a 	add	r2,r3,r2
 8001b0c:	1086c517 	ldw	r2,6932(r2)
 8001b10:	1000683a 	jmp	r2
 8001b14:	08001f40 	call	8001f4 <OSCtxSw_SWITCH_PC+0x8001b4>
 8001b18:	08001d80 	call	8001d8 <OSCtxSw_SWITCH_PC+0x800198>
 8001b1c:	08001e24 	muli	zero,at,120
 8001b20:	08001dd0 	cmplti	zero,at,119
 8001b24:	08001dac 	andhi	zero,at,118
 8001b28:	08001f40 	call	8001f4 <OSCtxSw_SWITCH_PC+0x8001b4>
 8001b2c:	08001f40 	call	8001f4 <OSCtxSw_SWITCH_PC+0x8001b4>
 8001b30:	08001f40 	call	8001f4 <OSCtxSw_SWITCH_PC+0x8001b4>
 8001b34:	08001f40 	call	8001f4 <OSCtxSw_SWITCH_PC+0x8001b4>
 8001b38:	08001f40 	call	8001f4 <OSCtxSw_SWITCH_PC+0x8001b4>
 8001b3c:	08001dfc 	xorhi	zero,at,119
 8001b40:	08001f40 	call	8001f4 <OSCtxSw_SWITCH_PC+0x8001b4>
 8001b44:	08001f40 	call	8001f4 <OSCtxSw_SWITCH_PC+0x8001b4>
 8001b48:	08001f40 	call	8001f4 <OSCtxSw_SWITCH_PC+0x8001b4>
 8001b4c:	08001f40 	call	8001f4 <OSCtxSw_SWITCH_PC+0x8001b4>
 8001b50:	08001f40 	call	8001f4 <OSCtxSw_SWITCH_PC+0x8001b4>
 8001b54:	08001f40 	call	8001f4 <OSCtxSw_SWITCH_PC+0x8001b4>
 8001b58:	08001f40 	call	8001f4 <OSCtxSw_SWITCH_PC+0x8001b4>
 8001b5c:	08001f40 	call	8001f4 <OSCtxSw_SWITCH_PC+0x8001b4>
 8001b60:	08001f40 	call	8001f4 <OSCtxSw_SWITCH_PC+0x8001b4>
 8001b64:	08001d58 	cmpnei	zero,at,117
 8001b68:	08001f40 	call	8001f4 <OSCtxSw_SWITCH_PC+0x8001b4>
 8001b6c:	08001f40 	call	8001f4 <OSCtxSw_SWITCH_PC+0x8001b4>
 8001b70:	08001f40 	call	8001f4 <OSCtxSw_SWITCH_PC+0x8001b4>
 8001b74:	08001f40 	call	8001f4 <OSCtxSw_SWITCH_PC+0x8001b4>
 8001b78:	08001f40 	call	8001f4 <OSCtxSw_SWITCH_PC+0x8001b4>
 8001b7c:	08001f40 	call	8001f4 <OSCtxSw_SWITCH_PC+0x8001b4>
 8001b80:	08001f40 	call	8001f4 <OSCtxSw_SWITCH_PC+0x8001b4>
 8001b84:	08001f40 	call	8001f4 <OSCtxSw_SWITCH_PC+0x8001b4>
 8001b88:	08001f40 	call	8001f4 <OSCtxSw_SWITCH_PC+0x8001b4>
 8001b8c:	08001eb8 	rdprs	zero,at,122
 8001b90:	08001f40 	call	8001f4 <OSCtxSw_SWITCH_PC+0x8001b4>
 8001b94:	08001f40 	call	8001f4 <OSCtxSw_SWITCH_PC+0x8001b4>
 8001b98:	08001f40 	call	8001f4 <OSCtxSw_SWITCH_PC+0x8001b4>
 8001b9c:	08001f40 	call	8001f4 <OSCtxSw_SWITCH_PC+0x8001b4>
 8001ba0:	08001f40 	call	8001f4 <OSCtxSw_SWITCH_PC+0x8001b4>
 8001ba4:	08001f40 	call	8001f4 <OSCtxSw_SWITCH_PC+0x8001b4>
 8001ba8:	08001f40 	call	8001f4 <OSCtxSw_SWITCH_PC+0x8001b4>
 8001bac:	08001f40 	call	8001f4 <OSCtxSw_SWITCH_PC+0x8001b4>
 8001bb0:	08001f40 	call	8001f4 <OSCtxSw_SWITCH_PC+0x8001b4>
 8001bb4:	08001cb4 	orhi	zero,at,114
 8001bb8:	08001f40 	call	8001f4 <OSCtxSw_SWITCH_PC+0x8001b4>
 8001bbc:	08001cd8 	cmpnei	zero,at,115
 8001bc0:	08001f40 	call	8001f4 <OSCtxSw_SWITCH_PC+0x8001b4>
 8001bc4:	08001f40 	call	8001f4 <OSCtxSw_SWITCH_PC+0x8001b4>
 8001bc8:	08001f40 	call	8001f4 <OSCtxSw_SWITCH_PC+0x8001b4>
 8001bcc:	08001f40 	call	8001f4 <OSCtxSw_SWITCH_PC+0x8001b4>
 8001bd0:	08001f40 	call	8001f4 <OSCtxSw_SWITCH_PC+0x8001b4>
 8001bd4:	08001f40 	call	8001f4 <OSCtxSw_SWITCH_PC+0x8001b4>
 8001bd8:	08001f40 	call	8001f4 <OSCtxSw_SWITCH_PC+0x8001b4>
 8001bdc:	08001f40 	call	8001f4 <OSCtxSw_SWITCH_PC+0x8001b4>
 8001be0:	08001f40 	call	8001f4 <OSCtxSw_SWITCH_PC+0x8001b4>
 8001be4:	08001f40 	call	8001f4 <OSCtxSw_SWITCH_PC+0x8001b4>
 8001be8:	08001f40 	call	8001f4 <OSCtxSw_SWITCH_PC+0x8001b4>
 8001bec:	08001f40 	call	8001f4 <OSCtxSw_SWITCH_PC+0x8001b4>
 8001bf0:	08001f40 	call	8001f4 <OSCtxSw_SWITCH_PC+0x8001b4>
 8001bf4:	08001f40 	call	8001f4 <OSCtxSw_SWITCH_PC+0x8001b4>
 8001bf8:	08001f40 	call	8001f4 <OSCtxSw_SWITCH_PC+0x8001b4>
 8001bfc:	08001f40 	call	8001f4 <OSCtxSw_SWITCH_PC+0x8001b4>
 8001c00:	08001f40 	call	8001f4 <OSCtxSw_SWITCH_PC+0x8001b4>
 8001c04:	08001f40 	call	8001f4 <OSCtxSw_SWITCH_PC+0x8001b4>
 8001c08:	08001e6c 	andhi	zero,at,121
 8001c0c:	08001e48 	cmpgei	zero,at,121
 8001c10:	08001f40 	call	8001f4 <OSCtxSw_SWITCH_PC+0x8001b4>
 8001c14:	08001e94 	ori	zero,at,122
 8001c18:	08001f40 	call	8001f4 <OSCtxSw_SWITCH_PC+0x8001b4>
 8001c1c:	08001d18 	cmpnei	zero,at,116
 8001c20:	08001f40 	call	8001f4 <OSCtxSw_SWITCH_PC+0x8001b4>
 8001c24:	08001f40 	call	8001f4 <OSCtxSw_SWITCH_PC+0x8001b4>
 8001c28:	08001f40 	call	8001f4 <OSCtxSw_SWITCH_PC+0x8001b4>
 8001c2c:	08001f40 	call	8001f4 <OSCtxSw_SWITCH_PC+0x8001b4>
 8001c30:	08001f40 	call	8001f4 <OSCtxSw_SWITCH_PC+0x8001b4>
 8001c34:	08001f40 	call	8001f4 <OSCtxSw_SWITCH_PC+0x8001b4>
 8001c38:	08001f40 	call	8001f4 <OSCtxSw_SWITCH_PC+0x8001b4>
 8001c3c:	08001f40 	call	8001f4 <OSCtxSw_SWITCH_PC+0x8001b4>
 8001c40:	08001f40 	call	8001f4 <OSCtxSw_SWITCH_PC+0x8001b4>
 8001c44:	08001f40 	call	8001f4 <OSCtxSw_SWITCH_PC+0x8001b4>
 8001c48:	08001f40 	call	8001f4 <OSCtxSw_SWITCH_PC+0x8001b4>
 8001c4c:	08001f40 	call	8001f4 <OSCtxSw_SWITCH_PC+0x8001b4>
 8001c50:	08001f40 	call	8001f4 <OSCtxSw_SWITCH_PC+0x8001b4>
 8001c54:	08001f40 	call	8001f4 <OSCtxSw_SWITCH_PC+0x8001b4>
 8001c58:	08001f40 	call	8001f4 <OSCtxSw_SWITCH_PC+0x8001b4>
 8001c5c:	08001f40 	call	8001f4 <OSCtxSw_SWITCH_PC+0x8001b4>
 8001c60:	08001f40 	call	8001f4 <OSCtxSw_SWITCH_PC+0x8001b4>
 8001c64:	08001f40 	call	8001f4 <OSCtxSw_SWITCH_PC+0x8001b4>
 8001c68:	08001f40 	call	8001f4 <OSCtxSw_SWITCH_PC+0x8001b4>
 8001c6c:	08001f40 	call	8001f4 <OSCtxSw_SWITCH_PC+0x8001b4>
 8001c70:	08001f40 	call	8001f4 <OSCtxSw_SWITCH_PC+0x8001b4>
 8001c74:	08001f40 	call	8001f4 <OSCtxSw_SWITCH_PC+0x8001b4>
 8001c78:	08001f40 	call	8001f4 <OSCtxSw_SWITCH_PC+0x8001b4>
 8001c7c:	08001f40 	call	8001f4 <OSCtxSw_SWITCH_PC+0x8001b4>
 8001c80:	08001f40 	call	8001f4 <OSCtxSw_SWITCH_PC+0x8001b4>
 8001c84:	08001f40 	call	8001f4 <OSCtxSw_SWITCH_PC+0x8001b4>
 8001c88:	08001f40 	call	8001f4 <OSCtxSw_SWITCH_PC+0x8001b4>
 8001c8c:	08001f40 	call	8001f4 <OSCtxSw_SWITCH_PC+0x8001b4>
 8001c90:	08001f40 	call	8001f4 <OSCtxSw_SWITCH_PC+0x8001b4>
 8001c94:	08001f40 	call	8001f4 <OSCtxSw_SWITCH_PC+0x8001b4>
 8001c98:	08001f40 	call	8001f4 <OSCtxSw_SWITCH_PC+0x8001b4>
 8001c9c:	08001f40 	call	8001f4 <OSCtxSw_SWITCH_PC+0x8001b4>
 8001ca0:	08001f40 	call	8001f4 <OSCtxSw_SWITCH_PC+0x8001b4>
 8001ca4:	08001ee0 	cmpeqi	zero,at,123
 8001ca8:	10803fe0 	cmpeqi	r2,r2,255
 8001cac:	1000971e 	bne	r2,zero,8001f0c <alt_uCOSIIErrorHandler+0x454>
 8001cb0:	0000a306 	br	8001f40 <alt_uCOSIIErrorHandler+0x488>
   {  
      case OS_PRIO_EXIST:
         fprintf(stderr, "Attempted to assign task priority aready in use.\n");
 8001cb4:	d0a00117 	ldw	r2,-32764(gp)
 8001cb8:	10800317 	ldw	r2,12(r2)
 8001cbc:	100f883a 	mov	r7,r2
 8001cc0:	01800c44 	movi	r6,49
 8001cc4:	01400044 	movi	r5,1
 8001cc8:	01020174 	movhi	r4,2053
 8001ccc:	21391804 	addi	r4,r4,-7072
 8001cd0:	80030a80 	call	80030a8 <fwrite>
         break;
 8001cd4:	0000b106 	br	8001f9c <alt_uCOSIIErrorHandler+0x4e4>
      case OS_PRIO_INVALID:
         fprintf(stderr, "Specified task priority higher than allowed max.\n");
 8001cd8:	d0a00117 	ldw	r2,-32764(gp)
 8001cdc:	10800317 	ldw	r2,12(r2)
 8001ce0:	100f883a 	mov	r7,r2
 8001ce4:	01800c44 	movi	r6,49
 8001ce8:	01400044 	movi	r5,1
 8001cec:	01020174 	movhi	r4,2053
 8001cf0:	21392504 	addi	r4,r4,-7020
 8001cf4:	80030a80 	call	80030a8 <fwrite>
         fprintf(stderr, "Task can't be assigned a priority higher than %d\n",
 8001cf8:	d0a00117 	ldw	r2,-32764(gp)
 8001cfc:	10800317 	ldw	r2,12(r2)
 8001d00:	01800504 	movi	r6,20
 8001d04:	01420174 	movhi	r5,2053
 8001d08:	29793204 	addi	r5,r5,-6968
 8001d0c:	1009883a 	mov	r4,r2
 8001d10:	8002fc00 	call	8002fc0 <fprintf>
            OS_LOWEST_PRIO);
         break;
 8001d14:	0000a106 	br	8001f9c <alt_uCOSIIErrorHandler+0x4e4>
      case OS_NO_MORE_TCB:
         fprintf(stderr, "Task Control Blocks have been exhausted\n");
 8001d18:	d0a00117 	ldw	r2,-32764(gp)
 8001d1c:	10800317 	ldw	r2,12(r2)
 8001d20:	100f883a 	mov	r7,r2
 8001d24:	01800a04 	movi	r6,40
 8001d28:	01400044 	movi	r5,1
 8001d2c:	01020174 	movhi	r4,2053
 8001d30:	21393f04 	addi	r4,r4,-6916
 8001d34:	80030a80 	call	80030a8 <fwrite>
         fprintf(stderr, "Current max number of tasks is %d\n",OS_MAX_TASKS);
 8001d38:	d0a00117 	ldw	r2,-32764(gp)
 8001d3c:	10800317 	ldw	r2,12(r2)
 8001d40:	01800284 	movi	r6,10
 8001d44:	01420174 	movhi	r5,2053
 8001d48:	29794a04 	addi	r5,r5,-6872
 8001d4c:	1009883a 	mov	r4,r2
 8001d50:	8002fc00 	call	8002fc0 <fprintf>
         break;
 8001d54:	00009106 	br	8001f9c <alt_uCOSIIErrorHandler+0x4e4>
      case OS_MBOX_FULL:
         fault_level = NONE;
 8001d58:	e03fff15 	stw	zero,-4(fp)
         fprintf(stderr, "Attempted Post to Mailbox already holding message\n");
 8001d5c:	d0a00117 	ldw	r2,-32764(gp)
 8001d60:	10800317 	ldw	r2,12(r2)
 8001d64:	100f883a 	mov	r7,r2
 8001d68:	01800c84 	movi	r6,50
 8001d6c:	01400044 	movi	r5,1
 8001d70:	01020174 	movhi	r4,2053
 8001d74:	21395304 	addi	r4,r4,-6836
 8001d78:	80030a80 	call	80030a8 <fwrite>
         break;
 8001d7c:	00008706 	br	8001f9c <alt_uCOSIIErrorHandler+0x4e4>
      case OS_ERR_EVENT_TYPE:
         fault_level = TASK;
 8001d80:	00800044 	movi	r2,1
 8001d84:	e0bfff15 	stw	r2,-4(fp)
         fprintf(stderr, 
 8001d88:	d0a00117 	ldw	r2,-32764(gp)
 8001d8c:	10800317 	ldw	r2,12(r2)
 8001d90:	100f883a 	mov	r7,r2
 8001d94:	01801244 	movi	r6,73
 8001d98:	01400044 	movi	r5,1
 8001d9c:	01020174 	movhi	r4,2053
 8001da0:	21396004 	addi	r4,r4,-6784
 8001da4:	80030a80 	call	80030a8 <fwrite>
"Attempted to access a resource with no match for the required data type.\n");
         break;
 8001da8:	00007c06 	br	8001f9c <alt_uCOSIIErrorHandler+0x4e4>
      case OS_ERR_PEVENT_NULL:
         fprintf(stderr, "Attempting to access a resource pointing to NULL\n");
 8001dac:	d0a00117 	ldw	r2,-32764(gp)
 8001db0:	10800317 	ldw	r2,12(r2)
 8001db4:	100f883a 	mov	r7,r2
 8001db8:	01800c44 	movi	r6,49
 8001dbc:	01400044 	movi	r5,1
 8001dc0:	01020174 	movhi	r4,2053
 8001dc4:	21397304 	addi	r4,r4,-6708
 8001dc8:	80030a80 	call	80030a8 <fwrite>
         break;
 8001dcc:	00007306 	br	8001f9c <alt_uCOSIIErrorHandler+0x4e4>
      case OS_ERR_POST_NULL_PTR:
         fault_level = TASK;
 8001dd0:	00800044 	movi	r2,1
 8001dd4:	e0bfff15 	stw	r2,-4(fp)
         fprintf(stderr, "Attempted to Post a NULL to a resource. \n");
 8001dd8:	d0a00117 	ldw	r2,-32764(gp)
 8001ddc:	10800317 	ldw	r2,12(r2)
 8001de0:	100f883a 	mov	r7,r2
 8001de4:	01800a44 	movi	r6,41
 8001de8:	01400044 	movi	r5,1
 8001dec:	01020174 	movhi	r4,2053
 8001df0:	21398004 	addi	r4,r4,-6656
 8001df4:	80030a80 	call	80030a8 <fwrite>
         break;
 8001df8:	00006806 	br	8001f9c <alt_uCOSIIErrorHandler+0x4e4>
      case OS_TIMEOUT:
         fault_level = NONE;
 8001dfc:	e03fff15 	stw	zero,-4(fp)
         fprintf(stderr, "Resource not received in specified time\n");
 8001e00:	d0a00117 	ldw	r2,-32764(gp)
 8001e04:	10800317 	ldw	r2,12(r2)
 8001e08:	100f883a 	mov	r7,r2
 8001e0c:	01800a04 	movi	r6,40
 8001e10:	01400044 	movi	r5,1
 8001e14:	01020174 	movhi	r4,2053
 8001e18:	21398b04 	addi	r4,r4,-6612
 8001e1c:	80030a80 	call	80030a8 <fwrite>
         break;
 8001e20:	00005e06 	br	8001f9c <alt_uCOSIIErrorHandler+0x4e4>
      case OS_ERR_PEND_ISR:
         fprintf(stderr, "Attempting to pend for a resource in an ISR\n");
 8001e24:	d0a00117 	ldw	r2,-32764(gp)
 8001e28:	10800317 	ldw	r2,12(r2)
 8001e2c:	100f883a 	mov	r7,r2
 8001e30:	01800b04 	movi	r6,44
 8001e34:	01400044 	movi	r5,1
 8001e38:	01020174 	movhi	r4,2053
 8001e3c:	21399604 	addi	r4,r4,-6568
 8001e40:	80030a80 	call	80030a8 <fwrite>
         break;
 8001e44:	00005506 	br	8001f9c <alt_uCOSIIErrorHandler+0x4e4>
      case OS_TASK_DEL_IDLE:
         fprintf(stderr, "Attempted to delete the IDLE task\n");
 8001e48:	d0a00117 	ldw	r2,-32764(gp)
 8001e4c:	10800317 	ldw	r2,12(r2)
 8001e50:	100f883a 	mov	r7,r2
 8001e54:	01800884 	movi	r6,34
 8001e58:	01400044 	movi	r5,1
 8001e5c:	01020174 	movhi	r4,2053
 8001e60:	2139a204 	addi	r4,r4,-6520
 8001e64:	80030a80 	call	80030a8 <fwrite>
         break;
 8001e68:	00004c06 	br	8001f9c <alt_uCOSIIErrorHandler+0x4e4>
      case OS_TASK_DEL_ERR:
         fault_level = NONE;
 8001e6c:	e03fff15 	stw	zero,-4(fp)
         fprintf(stderr, "Attempted to delete a task that does not exist\n");
 8001e70:	d0a00117 	ldw	r2,-32764(gp)
 8001e74:	10800317 	ldw	r2,12(r2)
 8001e78:	100f883a 	mov	r7,r2
 8001e7c:	01800bc4 	movi	r6,47
 8001e80:	01400044 	movi	r5,1
 8001e84:	01020174 	movhi	r4,2053
 8001e88:	2139ab04 	addi	r4,r4,-6484
 8001e8c:	80030a80 	call	80030a8 <fwrite>
         break;
 8001e90:	00004206 	br	8001f9c <alt_uCOSIIErrorHandler+0x4e4>
      case OS_TASK_DEL_ISR:
         fprintf(stderr, "Attempted to delete a task from an ISR\n");
 8001e94:	d0a00117 	ldw	r2,-32764(gp)
 8001e98:	10800317 	ldw	r2,12(r2)
 8001e9c:	100f883a 	mov	r7,r2
 8001ea0:	018009c4 	movi	r6,39
 8001ea4:	01400044 	movi	r5,1
 8001ea8:	01020174 	movhi	r4,2053
 8001eac:	2139b704 	addi	r4,r4,-6436
 8001eb0:	80030a80 	call	80030a8 <fwrite>
         break;
 8001eb4:	00003906 	br	8001f9c <alt_uCOSIIErrorHandler+0x4e4>
      case OS_Q_FULL:
         fault_level = NONE;
 8001eb8:	e03fff15 	stw	zero,-4(fp)
         fprintf(stderr, "Attempted to post to a full message queue\n");
 8001ebc:	d0a00117 	ldw	r2,-32764(gp)
 8001ec0:	10800317 	ldw	r2,12(r2)
 8001ec4:	100f883a 	mov	r7,r2
 8001ec8:	01800a84 	movi	r6,42
 8001ecc:	01400044 	movi	r5,1
 8001ed0:	01020174 	movhi	r4,2053
 8001ed4:	2139c104 	addi	r4,r4,-6396
 8001ed8:	80030a80 	call	80030a8 <fwrite>
         break;
 8001edc:	00002f06 	br	8001f9c <alt_uCOSIIErrorHandler+0x4e4>
      case OS_ERR_NOT_MUTEX_OWNER:
         fault_level = TASK;
 8001ee0:	00800044 	movi	r2,1
 8001ee4:	e0bfff15 	stw	r2,-4(fp)
         fprintf(stderr, "Attempted to post a mutex not owned by the task\n");
 8001ee8:	d0a00117 	ldw	r2,-32764(gp)
 8001eec:	10800317 	ldw	r2,12(r2)
 8001ef0:	100f883a 	mov	r7,r2
 8001ef4:	01800c04 	movi	r6,48
 8001ef8:	01400044 	movi	r5,1
 8001efc:	01020174 	movhi	r4,2053
 8001f00:	2139cc04 	addi	r4,r4,-6352
 8001f04:	80030a80 	call	80030a8 <fwrite>
         break;
 8001f08:	00002406 	br	8001f9c <alt_uCOSIIErrorHandler+0x4e4>
      case EXPANDED_DIAGNOSIS_CODE:      
         fault_level = SYSTEM;
 8001f0c:	00800084 	movi	r2,2
 8001f10:	e0bfff15 	stw	r2,-4(fp)
         printf(
 8001f14:	01020174 	movhi	r4,2053
 8001f18:	2139d904 	addi	r4,r4,-6300
 8001f1c:	80035240 	call	8003524 <printf>
"\n[MicroC/OS-II]: See STDERR for expanded diagnosis translation.");    
         fprintf(stderr, "\n[MicroC/OS-II]: Expanded Diagnosis: %s.", 
 8001f20:	d0a00117 	ldw	r2,-32764(gp)
 8001f24:	10800317 	ldw	r2,12(r2)
 8001f28:	e1bffd17 	ldw	r6,-12(fp)
 8001f2c:	01420174 	movhi	r5,2053
 8001f30:	2979e904 	addi	r5,r5,-6236
 8001f34:	1009883a 	mov	r4,r2
 8001f38:	8002fc00 	call	8002fc0 <fprintf>
                 (char *)expanded_diagnosis_ptr);
         break;           
 8001f3c:	00001706 	br	8001f9c <alt_uCOSIIErrorHandler+0x4e4>
      default:
         printf("\n[MicroC/OS-II]: (Not a MicroC/OS-II error) See STDERR.\n");    
 8001f40:	01020174 	movhi	r4,2053
 8001f44:	2139f404 	addi	r4,r4,-6192
 8001f48:	80036480 	call	8003648 <puts>
         fprintf(stderr, "\n[MicroC/OS-II]:");
 8001f4c:	d0a00117 	ldw	r2,-32764(gp)
 8001f50:	10800317 	ldw	r2,12(r2)
 8001f54:	100f883a 	mov	r7,r2
 8001f58:	01800404 	movi	r6,16
 8001f5c:	01400044 	movi	r5,1
 8001f60:	01020174 	movhi	r4,2053
 8001f64:	213a0204 	addi	r4,r4,-6136
 8001f68:	80030a80 	call	80030a8 <fwrite>
         fprintf(stderr, "\nError_code %d.\n", error_code);
 8001f6c:	d0a00117 	ldw	r2,-32764(gp)
 8001f70:	10800317 	ldw	r2,12(r2)
 8001f74:	e0fffe03 	ldbu	r3,-8(fp)
 8001f78:	180d883a 	mov	r6,r3
 8001f7c:	01420174 	movhi	r5,2053
 8001f80:	297a0704 	addi	r5,r5,-6116
 8001f84:	1009883a 	mov	r4,r2
 8001f88:	8002fc00 	call	8002fc0 <fprintf>
         perror("\n[MicroC/OS-II]: (Not a MicroC/OS-II error), ERRNO: ");
 8001f8c:	01020174 	movhi	r4,2053
 8001f90:	213a0c04 	addi	r4,r4,-6096
 8001f94:	80034e40 	call	80034e4 <perror>
         break;
 8001f98:	0001883a 	nop

   }

   /* Process the error based on the fault level, 
    * reenable scheduler if appropriate. */  
   switch (fault_level) {
 8001f9c:	e0bfff17 	ldw	r2,-4(fp)
 8001fa0:	108000a0 	cmpeqi	r2,r2,2
 8001fa4:	1000231e 	bne	r2,zero,8002034 <alt_uCOSIIErrorHandler+0x57c>
 8001fa8:	e0bfff17 	ldw	r2,-4(fp)
 8001fac:	108000e8 	cmpgeui	r2,r2,3
 8001fb0:	1000561e 	bne	r2,zero,800210c <alt_uCOSIIErrorHandler+0x654>
 8001fb4:	e0bfff17 	ldw	r2,-4(fp)
 8001fb8:	10003a26 	beq	r2,zero,80020a4 <alt_uCOSIIErrorHandler+0x5ec>
 8001fbc:	e0bfff17 	ldw	r2,-4(fp)
 8001fc0:	10800058 	cmpnei	r2,r2,1
 8001fc4:	1000511e 	bne	r2,zero,800210c <alt_uCOSIIErrorHandler+0x654>
      case TASK:
         /* Error can be isolated by killing the task */
         printf("\n[MicroC/OS-II]: See STDERR (FAULT_LEVEL is TASK).");
 8001fc8:	01020174 	movhi	r4,2053
 8001fcc:	213a1a04 	addi	r4,r4,-6040
 8001fd0:	80035240 	call	8003524 <printf>
         fprintf(stderr, "\n[MicroC/OS-II]: FAULT_LEVEL is TASK");
 8001fd4:	d0a00117 	ldw	r2,-32764(gp)
 8001fd8:	10800317 	ldw	r2,12(r2)
 8001fdc:	100f883a 	mov	r7,r2
 8001fe0:	01800904 	movi	r6,36
 8001fe4:	01400044 	movi	r5,1
 8001fe8:	01020174 	movhi	r4,2053
 8001fec:	213a2704 	addi	r4,r4,-5988
 8001ff0:	80030a80 	call	80030a8 <fwrite>
         fprintf(stderr, "\n[MicroC/OS-II]: Task is being deleted.\n");
 8001ff4:	d0a00117 	ldw	r2,-32764(gp)
 8001ff8:	10800317 	ldw	r2,12(r2)
 8001ffc:	100f883a 	mov	r7,r2
 8002000:	01800a04 	movi	r6,40
 8002004:	01400044 	movi	r5,1
 8002008:	01020174 	movhi	r4,2053
 800200c:	213a3104 	addi	r4,r4,-5948
 8002010:	80030a80 	call	80030a8 <fwrite>
         OSSchedUnlock(); /* Reenable Task Switching */
 8002014:	80120900 	call	8012090 <OSSchedUnlock>
         OSTaskDel(OS_PRIO_SELF);
 8002018:	01003fc4 	movi	r4,255
 800201c:	8017b140 	call	8017b14 <OSTaskDel>
         /* Reinvoke uCOSII error handler in case task deletion fails, in 
          * which case fault_level for this secondary error will be SYSTEM. */
         alt_uCOSIIErrorHandler(error_code, 0);         
 8002020:	e0bffe03 	ldbu	r2,-8(fp)
 8002024:	000b883a 	mov	r5,zero
 8002028:	1009883a 	mov	r4,r2
 800202c:	8001ab80 	call	8001ab8 <alt_uCOSIIErrorHandler>
         break;
 8002030:	00004106 	br	8002138 <alt_uCOSIIErrorHandler+0x680>
      case SYSTEM:
         /* Total System Failure, Restart Required */
         printf("\n[MicroC/OS-II]: See STDERR (FAULT_LEVEL is SYSTEM).");    
 8002034:	01020174 	movhi	r4,2053
 8002038:	213a3c04 	addi	r4,r4,-5904
 800203c:	80035240 	call	8003524 <printf>
         fprintf(stderr, "\n[MicroC/OS-II]: FAULT_LEVEL is SYSTEM");
 8002040:	d0a00117 	ldw	r2,-32764(gp)
 8002044:	10800317 	ldw	r2,12(r2)
 8002048:	100f883a 	mov	r7,r2
 800204c:	01800984 	movi	r6,38
 8002050:	01400044 	movi	r5,1
 8002054:	01020174 	movhi	r4,2053
 8002058:	213a4a04 	addi	r4,r4,-5848
 800205c:	80030a80 	call	80030a8 <fwrite>
         fprintf(stderr, "\n[MicroC/OS-II]: FATAL Error, Restart required.");
 8002060:	d0a00117 	ldw	r2,-32764(gp)
 8002064:	10800317 	ldw	r2,12(r2)
 8002068:	100f883a 	mov	r7,r2
 800206c:	01800bc4 	movi	r6,47
 8002070:	01400044 	movi	r5,1
 8002074:	01020174 	movhi	r4,2053
 8002078:	213a5404 	addi	r4,r4,-5808
 800207c:	80030a80 	call	80030a8 <fwrite>
         fprintf(stderr, "\n[MicroC/OS-II]: Locking scheduler - endless loop.\n");
 8002080:	d0a00117 	ldw	r2,-32764(gp)
 8002084:	10800317 	ldw	r2,12(r2)
 8002088:	100f883a 	mov	r7,r2
 800208c:	01800cc4 	movi	r6,51
 8002090:	01400044 	movi	r5,1
 8002094:	01020174 	movhi	r4,2053
 8002098:	213a6004 	addi	r4,r4,-5760
 800209c:	80030a80 	call	80030a8 <fwrite>
         while(1); /* Since scheduler is locked,loop halts all task activity.*/
 80020a0:	003fff06 	br	80020a0 <alt_uCOSIIErrorHandler+0x5e8>
         break;
      case NONE:
         fprintf(stderr, "\n[MicroC/OS-II]: FAULT_LEVEL is NONE");
 80020a4:	d0a00117 	ldw	r2,-32764(gp)
 80020a8:	10800317 	ldw	r2,12(r2)
 80020ac:	100f883a 	mov	r7,r2
 80020b0:	01800904 	movi	r6,36
 80020b4:	01400044 	movi	r5,1
 80020b8:	01020174 	movhi	r4,2053
 80020bc:	213a6d04 	addi	r4,r4,-5708
 80020c0:	80030a80 	call	80030a8 <fwrite>
         fprintf(stderr, "\n[MicroC/OS-II]: Informational error only, control"); 
 80020c4:	d0a00117 	ldw	r2,-32764(gp)
 80020c8:	10800317 	ldw	r2,12(r2)
 80020cc:	100f883a 	mov	r7,r2
 80020d0:	01800c84 	movi	r6,50
 80020d4:	01400044 	movi	r5,1
 80020d8:	01020174 	movhi	r4,2053
 80020dc:	213a7704 	addi	r4,r4,-5668
 80020e0:	80030a80 	call	80030a8 <fwrite>
         fprintf(stderr, 
 80020e4:	d0a00117 	ldw	r2,-32764(gp)
 80020e8:	10800317 	ldw	r2,12(r2)
 80020ec:	100f883a 	mov	r7,r2
 80020f0:	01800f84 	movi	r6,62
 80020f4:	01400044 	movi	r5,1
 80020f8:	01020174 	movhi	r4,2053
 80020fc:	213a8404 	addi	r4,r4,-5616
 8002100:	80030a80 	call	80030a8 <fwrite>
            "returned to task to complete processing at application level.\n");
         OSSchedUnlock(); /* Reenable Task Switching */
 8002104:	80120900 	call	8012090 <OSSchedUnlock>
         return;   
 8002108:	00000d06 	br	8002140 <alt_uCOSIIErrorHandler+0x688>
         break;      
      default:
         printf("\n[MicroC/OS-II]: See STDERR (FAULT_LEVEL is Unknown).\n");
 800210c:	01020174 	movhi	r4,2053
 8002110:	213a9404 	addi	r4,r4,-5552
 8002114:	80036480 	call	8003648 <puts>
         fprintf(stderr, "\n[MicroC/OS-II]: FAULT_LEVEL is unknown!?!\n");
 8002118:	d0a00117 	ldw	r2,-32764(gp)
 800211c:	10800317 	ldw	r2,12(r2)
 8002120:	100f883a 	mov	r7,r2
 8002124:	01800ac4 	movi	r6,43
 8002128:	01400044 	movi	r5,1
 800212c:	01020174 	movhi	r4,2053
 8002130:	213aa204 	addi	r4,r4,-5496
 8002134:	80030a80 	call	80030a8 <fwrite>
   }
   while(1); /* Correct Program Flow never gets here. */
 8002138:	003fff06 	br	8002138 <alt_uCOSIIErrorHandler+0x680>
      return;
 800213c:	0001883a 	nop
}
 8002140:	e037883a 	mov	sp,fp
 8002144:	dfc00117 	ldw	ra,4(sp)
 8002148:	df000017 	ldw	fp,0(sp)
 800214c:	dec00204 	addi	sp,sp,8
 8002150:	f800283a 	ret

08002154 <alt_NetworkErrorHandler>:

void alt_NetworkErrorHandler(INT8U error_code, void *expanded_diagnosis_ptr)
{
 8002154:	defffb04 	addi	sp,sp,-20
 8002158:	dfc00415 	stw	ra,16(sp)
 800215c:	df000315 	stw	fp,12(sp)
 8002160:	df000304 	addi	fp,sp,12
 8002164:	2005883a 	mov	r2,r4
 8002168:	e17ffd15 	stw	r5,-12(fp)
 800216c:	e0bffe05 	stb	r2,-8(fp)
   FAULT_LEVEL fault_level;

   if(error_code == OS_NO_ERR)
 8002170:	e0bffe03 	ldbu	r2,-8(fp)
 8002174:	10008e26 	beq	r2,zero,80023b0 <alt_NetworkErrorHandler+0x25c>
   {
      return;
   }

   fault_level = SYSTEM;   
 8002178:	00800084 	movi	r2,2
 800217c:	e0bfff15 	stw	r2,-4(fp)
   OSSchedLock();  /* Disable Task Switching but still service other IRQs */  
 8002180:	80120000 	call	8012000 <OSSchedLock>

   if (error_code == EXPANDED_DIAGNOSIS_CODE) 
 8002184:	e0bffe03 	ldbu	r2,-8(fp)
 8002188:	10803fd8 	cmpnei	r2,r2,255
 800218c:	1000101e 	bne	r2,zero,80021d0 <alt_NetworkErrorHandler+0x7c>
   {
      fault_level = SYSTEM;
 8002190:	00800084 	movi	r2,2
 8002194:	e0bfff15 	stw	r2,-4(fp)
      printf("\n[Network]: See STDERR for expanded diagnosis translation.");    
 8002198:	01020174 	movhi	r4,2053
 800219c:	213aad04 	addi	r4,r4,-5452
 80021a0:	80035240 	call	8003524 <printf>
      fprintf(stderr, "\n[Network]: %s", (char *)expanded_diagnosis_ptr);
 80021a4:	d0a00117 	ldw	r2,-32764(gp)
 80021a8:	10800317 	ldw	r2,12(r2)
 80021ac:	e1bffd17 	ldw	r6,-12(fp)
 80021b0:	01420174 	movhi	r5,2053
 80021b4:	297abc04 	addi	r5,r5,-5392
 80021b8:	1009883a 	mov	r4,r2
 80021bc:	8002fc00 	call	8002fc0 <fprintf>
      /* Check errno also in case it has been set. */
      perror("\n[Network]:  ERRNO: ");
 80021c0:	01020174 	movhi	r4,2053
 80021c4:	213ac004 	addi	r4,r4,-5376
 80021c8:	80034e40 	call	80034e4 <perror>
 80021cc:	00001006 	br	8002210 <alt_NetworkErrorHandler+0xbc>
   }
   else 
   {
      fault_level = TASK;
 80021d0:	00800044 	movi	r2,1
 80021d4:	e0bfff15 	stw	r2,-4(fp)
      printf("\n[Network]: See STDERR.\n");    
 80021d8:	01020174 	movhi	r4,2053
 80021dc:	213ac604 	addi	r4,r4,-5352
 80021e0:	80036480 	call	8003648 <puts>
      fprintf(stderr, "\n[Network]: Error_code %d!\n", error_code);        
 80021e4:	d0a00117 	ldw	r2,-32764(gp)
 80021e8:	10800317 	ldw	r2,12(r2)
 80021ec:	e0fffe03 	ldbu	r3,-8(fp)
 80021f0:	180d883a 	mov	r6,r3
 80021f4:	01420174 	movhi	r5,2053
 80021f8:	297acc04 	addi	r5,r5,-5328
 80021fc:	1009883a 	mov	r4,r2
 8002200:	8002fc00 	call	8002fc0 <fprintf>
      perror("\n[Network]:  ERRNO: ");
 8002204:	01020174 	movhi	r4,2053
 8002208:	213ac004 	addi	r4,r4,-5376
 800220c:	80034e40 	call	80034e4 <perror>
   }

   /* Process error based on fault level, reenable scheduler if appropriate. */     
   switch (fault_level) 
 8002210:	e0bfff17 	ldw	r2,-4(fp)
 8002214:	108000a0 	cmpeqi	r2,r2,2
 8002218:	1000231e 	bne	r2,zero,80022a8 <alt_NetworkErrorHandler+0x154>
 800221c:	e0bfff17 	ldw	r2,-4(fp)
 8002220:	108000e8 	cmpgeui	r2,r2,3
 8002224:	1000561e 	bne	r2,zero,8002380 <alt_NetworkErrorHandler+0x22c>
 8002228:	e0bfff17 	ldw	r2,-4(fp)
 800222c:	10003a26 	beq	r2,zero,8002318 <alt_NetworkErrorHandler+0x1c4>
 8002230:	e0bfff17 	ldw	r2,-4(fp)
 8002234:	10800058 	cmpnei	r2,r2,1
 8002238:	1000511e 	bne	r2,zero,8002380 <alt_NetworkErrorHandler+0x22c>
   {
      case TASK:
         /* Error can be isolated by killing the task */
         printf("\n[Network]: See STDERR (FAULT_LEVEL is TASK).");
 800223c:	01020174 	movhi	r4,2053
 8002240:	213ad304 	addi	r4,r4,-5300
 8002244:	80035240 	call	8003524 <printf>
         fprintf(stderr, "\n[Network]: FAULT_LEVEL is TASK");
 8002248:	d0a00117 	ldw	r2,-32764(gp)
 800224c:	10800317 	ldw	r2,12(r2)
 8002250:	100f883a 	mov	r7,r2
 8002254:	018007c4 	movi	r6,31
 8002258:	01400044 	movi	r5,1
 800225c:	01020174 	movhi	r4,2053
 8002260:	213adf04 	addi	r4,r4,-5252
 8002264:	80030a80 	call	80030a8 <fwrite>
         fprintf(stderr, "\n[Network]: Task is being deleted.\n");
 8002268:	d0a00117 	ldw	r2,-32764(gp)
 800226c:	10800317 	ldw	r2,12(r2)
 8002270:	100f883a 	mov	r7,r2
 8002274:	018008c4 	movi	r6,35
 8002278:	01400044 	movi	r5,1
 800227c:	01020174 	movhi	r4,2053
 8002280:	213ae704 	addi	r4,r4,-5220
 8002284:	80030a80 	call	80030a8 <fwrite>
         OSSchedUnlock(); /* Reenable Task Switching */
 8002288:	80120900 	call	8012090 <OSSchedUnlock>
         OSTaskDel(OS_PRIO_SELF);
 800228c:	01003fc4 	movi	r4,255
 8002290:	8017b140 	call	8017b14 <OSTaskDel>
         /* Reinvoke uCOSII error handler in case task deletion fails, in 
          * which case fault_level for this secondary error will be SYSTEM. */
         alt_uCOSIIErrorHandler(error_code, 0);         
 8002294:	e0bffe03 	ldbu	r2,-8(fp)
 8002298:	000b883a 	mov	r5,zero
 800229c:	1009883a 	mov	r4,r2
 80022a0:	8001ab80 	call	8001ab8 <alt_uCOSIIErrorHandler>
         break;
 80022a4:	00004106 	br	80023ac <alt_NetworkErrorHandler+0x258>
      case SYSTEM:
         /* Total System Failure, Restart Required */
         printf("\n[Network]: See STDERR (FAULT_LEVEL is SYSTEM).");    
 80022a8:	01020174 	movhi	r4,2053
 80022ac:	213af004 	addi	r4,r4,-5184
 80022b0:	80035240 	call	8003524 <printf>
         fprintf(stderr, "\n[Network]: FAULT_LEVEL is SYSTEM.");
 80022b4:	d0a00117 	ldw	r2,-32764(gp)
 80022b8:	10800317 	ldw	r2,12(r2)
 80022bc:	100f883a 	mov	r7,r2
 80022c0:	01800884 	movi	r6,34
 80022c4:	01400044 	movi	r5,1
 80022c8:	01020174 	movhi	r4,2053
 80022cc:	213afc04 	addi	r4,r4,-5136
 80022d0:	80030a80 	call	80030a8 <fwrite>
         fprintf(stderr, "\n[Network]: FATAL Error, Restart required.");
 80022d4:	d0a00117 	ldw	r2,-32764(gp)
 80022d8:	10800317 	ldw	r2,12(r2)
 80022dc:	100f883a 	mov	r7,r2
 80022e0:	01800a84 	movi	r6,42
 80022e4:	01400044 	movi	r5,1
 80022e8:	01020174 	movhi	r4,2053
 80022ec:	213b0504 	addi	r4,r4,-5100
 80022f0:	80030a80 	call	80030a8 <fwrite>
         fprintf(stderr, "\n[Network]: Locking scheduler - endless loop.\n");
 80022f4:	d0a00117 	ldw	r2,-32764(gp)
 80022f8:	10800317 	ldw	r2,12(r2)
 80022fc:	100f883a 	mov	r7,r2
 8002300:	01800b84 	movi	r6,46
 8002304:	01400044 	movi	r5,1
 8002308:	01020174 	movhi	r4,2053
 800230c:	213b1004 	addi	r4,r4,-5056
 8002310:	80030a80 	call	80030a8 <fwrite>
         while(1); /* Since scheduler is locked, loop halts all task activity.*/
 8002314:	003fff06 	br	8002314 <alt_NetworkErrorHandler+0x1c0>
         break;
      case NONE:
         fprintf(stderr, "\n[Network]: FAULT_LEVEL is NONE.");
 8002318:	d0a00117 	ldw	r2,-32764(gp)
 800231c:	10800317 	ldw	r2,12(r2)
 8002320:	100f883a 	mov	r7,r2
 8002324:	01800804 	movi	r6,32
 8002328:	01400044 	movi	r5,1
 800232c:	01020174 	movhi	r4,2053
 8002330:	213b1c04 	addi	r4,r4,-5008
 8002334:	80030a80 	call	80030a8 <fwrite>
         fprintf(stderr, "\n[Network]: Informational "
 8002338:	d0a00117 	ldw	r2,-32764(gp)
 800233c:	10800317 	ldw	r2,12(r2)
 8002340:	100f883a 	mov	r7,r2
 8002344:	01800d84 	movi	r6,54
 8002348:	01400044 	movi	r5,1
 800234c:	01020174 	movhi	r4,2053
 8002350:	213b2504 	addi	r4,r4,-4972
 8002354:	80030a80 	call	80030a8 <fwrite>
                         "error only, control returned");
         fprintf(stderr, 
 8002358:	d0a00117 	ldw	r2,-32764(gp)
 800235c:	10800317 	ldw	r2,12(r2)
 8002360:	100f883a 	mov	r7,r2
 8002364:	01800e44 	movi	r6,57
 8002368:	01400044 	movi	r5,1
 800236c:	01020174 	movhi	r4,2053
 8002370:	213b3304 	addi	r4,r4,-4916
 8002374:	80030a80 	call	80030a8 <fwrite>
            "to task to complete processing at the application level.\n");
         OSSchedUnlock(); /* Reenable Task Switching */ 
 8002378:	80120900 	call	8012090 <OSSchedUnlock>
         return;
 800237c:	00000d06 	br	80023b4 <alt_NetworkErrorHandler+0x260>
         break;         
      default:
         printf("\n[Network]: See STDERR (FAULT_LEVEL is unknown).\n");    
 8002380:	01020174 	movhi	r4,2053
 8002384:	213b4204 	addi	r4,r4,-4856
 8002388:	80036480 	call	8003648 <puts>
         fprintf(stderr, "\n[Network] FAULT_LEVEL is unknown !?!\n");
 800238c:	d0a00117 	ldw	r2,-32764(gp)
 8002390:	10800317 	ldw	r2,12(r2)
 8002394:	100f883a 	mov	r7,r2
 8002398:	01800984 	movi	r6,38
 800239c:	01400044 	movi	r5,1
 80023a0:	01020174 	movhi	r4,2053
 80023a4:	213b4f04 	addi	r4,r4,-4804
 80023a8:	80030a80 	call	80030a8 <fwrite>
   }
   while(1); /* Correct Program Flow never gets here. */
 80023ac:	003fff06 	br	80023ac <alt_NetworkErrorHandler+0x258>
      return;
 80023b0:	0001883a 	nop
}
 80023b4:	e037883a 	mov	sp,fp
 80023b8:	dfc00117 	ldw	ra,4(sp)
 80023bc:	df000017 	ldw	fp,0(sp)
 80023c0:	dec00204 	addi	sp,sp,8
 80023c4:	f800283a 	ret

080023c8 <alt_SSSErrorHandler>:
   
   
void alt_SSSErrorHandler(INT8U error_code, 
                         void *expanded_diagnosis_ptr)
{
 80023c8:	defffb04 	addi	sp,sp,-20
 80023cc:	dfc00415 	stw	ra,16(sp)
 80023d0:	df000315 	stw	fp,12(sp)
 80023d4:	df000304 	addi	fp,sp,12
 80023d8:	2005883a 	mov	r2,r4
 80023dc:	e17ffd15 	stw	r5,-12(fp)
 80023e0:	e0bffe05 	stb	r2,-8(fp)
   FAULT_LEVEL fault_level;
   
   if   (error_code == OS_NO_ERR)
 80023e4:	e0bffe03 	ldbu	r2,-8(fp)
 80023e8:	10009b26 	beq	r2,zero,8002658 <alt_SSSErrorHandler+0x290>
   {
      return;
   }

   fault_level = (error_code == OS_NO_ERR) ? NONE : SYSTEM;
 80023ec:	e0bffe03 	ldbu	r2,-8(fp)
 80023f0:	1000021e 	bne	r2,zero,80023fc <alt_SSSErrorHandler+0x34>
 80023f4:	0005883a 	mov	r2,zero
 80023f8:	00000106 	br	8002400 <alt_SSSErrorHandler+0x38>
 80023fc:	00800084 	movi	r2,2
 8002400:	e0bfff15 	stw	r2,-4(fp)
   
   OSSchedLock();  /* Disable Task Switching but still service other IRQs */
 8002404:	80120000 	call	8012000 <OSSchedLock>
   switch (error_code)
 8002408:	e0bffe03 	ldbu	r2,-8(fp)
 800240c:	10c007a0 	cmpeqi	r3,r2,30
 8002410:	18000f1e 	bne	r3,zero,8002450 <alt_SSSErrorHandler+0x88>
 8002414:	10803fd8 	cmpnei	r2,r2,255
 8002418:	1000171e 	bne	r2,zero,8002478 <alt_SSSErrorHandler+0xb0>
   {
      case EXPANDED_DIAGNOSIS_CODE:      
         fault_level = SYSTEM;
 800241c:	00800084 	movi	r2,2
 8002420:	e0bfff15 	stw	r2,-4(fp)
         printf("\n[SSS]: See STDERR for expanded diagnosis translation.");    
 8002424:	01020174 	movhi	r4,2053
 8002428:	213b5904 	addi	r4,r4,-4764
 800242c:	80035240 	call	8003524 <printf>
         fprintf(stderr, "\n[SSS]: %s", (char *)expanded_diagnosis_ptr);
 8002430:	d0a00117 	ldw	r2,-32764(gp)
 8002434:	10800317 	ldw	r2,12(r2)
 8002438:	e1bffd17 	ldw	r6,-12(fp)
 800243c:	01420174 	movhi	r5,2053
 8002440:	297b6704 	addi	r5,r5,-4708
 8002444:	1009883a 	mov	r4,r2
 8002448:	8002fc00 	call	8002fc0 <fprintf>
         break;
 800244c:	00001a06 	br	80024b8 <alt_SSSErrorHandler+0xf0>
         
      case OS_Q_FULL:
         fault_level = NONE;
 8002450:	e03fff15 	stw	zero,-4(fp)
         fprintf(stderr,"\n[SSS]: Attempted to post to a full message queue.");
 8002454:	d0a00117 	ldw	r2,-32764(gp)
 8002458:	10800317 	ldw	r2,12(r2)
 800245c:	100f883a 	mov	r7,r2
 8002460:	01800c84 	movi	r6,50
 8002464:	01400044 	movi	r5,1
 8002468:	01020174 	movhi	r4,2053
 800246c:	213b6a04 	addi	r4,r4,-4696
 8002470:	80030a80 	call	80030a8 <fwrite>
         break;
 8002474:	00001006 	br	80024b8 <alt_SSSErrorHandler+0xf0>
      
      default:
         fault_level = SYSTEM;
 8002478:	00800084 	movi	r2,2
 800247c:	e0bfff15 	stw	r2,-4(fp)
         printf("\n[SSS]: See STDERR.\n");    
 8002480:	01020174 	movhi	r4,2053
 8002484:	213b7704 	addi	r4,r4,-4644
 8002488:	80036480 	call	8003648 <puts>
         fprintf(stderr, "\n[SSS]: Error_code %d!", error_code);        
 800248c:	d0a00117 	ldw	r2,-32764(gp)
 8002490:	10800317 	ldw	r2,12(r2)
 8002494:	e0fffe03 	ldbu	r3,-8(fp)
 8002498:	180d883a 	mov	r6,r3
 800249c:	01420174 	movhi	r5,2053
 80024a0:	297b7c04 	addi	r5,r5,-4624
 80024a4:	1009883a 	mov	r4,r2
 80024a8:	8002fc00 	call	8002fc0 <fprintf>
         perror("\n[SSS]:  ERRNO: ");
 80024ac:	01020174 	movhi	r4,2053
 80024b0:	213b8204 	addi	r4,r4,-4600
 80024b4:	80034e40 	call	80034e4 <perror>
   }

   /* Process the error based on the fault level, 
    * reenable scheduler if appropriate. */     
   switch (fault_level) 
 80024b8:	e0bfff17 	ldw	r2,-4(fp)
 80024bc:	108000a0 	cmpeqi	r2,r2,2
 80024c0:	1000231e 	bne	r2,zero,8002550 <alt_SSSErrorHandler+0x188>
 80024c4:	e0bfff17 	ldw	r2,-4(fp)
 80024c8:	108000e8 	cmpgeui	r2,r2,3
 80024cc:	1000561e 	bne	r2,zero,8002628 <alt_SSSErrorHandler+0x260>
 80024d0:	e0bfff17 	ldw	r2,-4(fp)
 80024d4:	10003a26 	beq	r2,zero,80025c0 <alt_SSSErrorHandler+0x1f8>
 80024d8:	e0bfff17 	ldw	r2,-4(fp)
 80024dc:	10800058 	cmpnei	r2,r2,1
 80024e0:	1000511e 	bne	r2,zero,8002628 <alt_SSSErrorHandler+0x260>
   {
      case TASK:
         /* Error can be isolated by killing the task */
         printf("\n[SSS]: See STDERR (FAULT_LEVEL is TASK).");
 80024e4:	01020174 	movhi	r4,2053
 80024e8:	213b8704 	addi	r4,r4,-4580
 80024ec:	80035240 	call	8003524 <printf>
         fprintf(stderr, "\n[SSS]: FAULT_LEVEL is TASK");
 80024f0:	d0a00117 	ldw	r2,-32764(gp)
 80024f4:	10800317 	ldw	r2,12(r2)
 80024f8:	100f883a 	mov	r7,r2
 80024fc:	018006c4 	movi	r6,27
 8002500:	01400044 	movi	r5,1
 8002504:	01020174 	movhi	r4,2053
 8002508:	213b9204 	addi	r4,r4,-4536
 800250c:	80030a80 	call	80030a8 <fwrite>
         fprintf(stderr, "\n[SSS]: Task is being deleted.\n");
 8002510:	d0a00117 	ldw	r2,-32764(gp)
 8002514:	10800317 	ldw	r2,12(r2)
 8002518:	100f883a 	mov	r7,r2
 800251c:	018007c4 	movi	r6,31
 8002520:	01400044 	movi	r5,1
 8002524:	01020174 	movhi	r4,2053
 8002528:	213b9904 	addi	r4,r4,-4508
 800252c:	80030a80 	call	80030a8 <fwrite>
         OSSchedUnlock(); /* Reenable Task Switching */
 8002530:	80120900 	call	8012090 <OSSchedUnlock>
         OSTaskDel(OS_PRIO_SELF);
 8002534:	01003fc4 	movi	r4,255
 8002538:	8017b140 	call	8017b14 <OSTaskDel>
         /* Invoke uCOSII error handler in case task deletion fails, in 
          * which case fault_level for this secondary error will be SYSTEM. */
         alt_uCOSIIErrorHandler(error_code, 0);         
 800253c:	e0bffe03 	ldbu	r2,-8(fp)
 8002540:	000b883a 	mov	r5,zero
 8002544:	1009883a 	mov	r4,r2
 8002548:	8001ab80 	call	8001ab8 <alt_uCOSIIErrorHandler>
         break;
 800254c:	00004106 	br	8002654 <alt_SSSErrorHandler+0x28c>
      case SYSTEM:
          /* Total System Failure, Restart Required */
         printf("\n[SSS]: See STDERR (FAULT_LEVEL is SYSTEM).");    
 8002550:	01020174 	movhi	r4,2053
 8002554:	213ba104 	addi	r4,r4,-4476
 8002558:	80035240 	call	8003524 <printf>
         fprintf(stderr, "\n[SSS]: FAULT_LEVEL is SYSTEM.");
 800255c:	d0a00117 	ldw	r2,-32764(gp)
 8002560:	10800317 	ldw	r2,12(r2)
 8002564:	100f883a 	mov	r7,r2
 8002568:	01800784 	movi	r6,30
 800256c:	01400044 	movi	r5,1
 8002570:	01020174 	movhi	r4,2053
 8002574:	213bac04 	addi	r4,r4,-4432
 8002578:	80030a80 	call	80030a8 <fwrite>
         fprintf(stderr, "\n[SSS]: FATAL Error, Restart required.");
 800257c:	d0a00117 	ldw	r2,-32764(gp)
 8002580:	10800317 	ldw	r2,12(r2)
 8002584:	100f883a 	mov	r7,r2
 8002588:	01800984 	movi	r6,38
 800258c:	01400044 	movi	r5,1
 8002590:	01020174 	movhi	r4,2053
 8002594:	213bb404 	addi	r4,r4,-4400
 8002598:	80030a80 	call	80030a8 <fwrite>
         fprintf(stderr, "\n[SSS]: Locking scheduler - endless loop.\n");
 800259c:	d0a00117 	ldw	r2,-32764(gp)
 80025a0:	10800317 	ldw	r2,12(r2)
 80025a4:	100f883a 	mov	r7,r2
 80025a8:	01800a84 	movi	r6,42
 80025ac:	01400044 	movi	r5,1
 80025b0:	01020174 	movhi	r4,2053
 80025b4:	213bbe04 	addi	r4,r4,-4360
 80025b8:	80030a80 	call	80030a8 <fwrite>
         while(1); /* Since scheduler is locked, loop halts all task activity.*/
 80025bc:	003fff06 	br	80025bc <alt_SSSErrorHandler+0x1f4>
         break;
      case NONE:
         fprintf(stderr, "\n[SSS] FAULT_LEVEL is NONE.");
 80025c0:	d0a00117 	ldw	r2,-32764(gp)
 80025c4:	10800317 	ldw	r2,12(r2)
 80025c8:	100f883a 	mov	r7,r2
 80025cc:	018006c4 	movi	r6,27
 80025d0:	01400044 	movi	r5,1
 80025d4:	01020174 	movhi	r4,2053
 80025d8:	213bc904 	addi	r4,r4,-4316
 80025dc:	80030a80 	call	80030a8 <fwrite>
         fprintf(stderr, 
 80025e0:	d0a00117 	ldw	r2,-32764(gp)
 80025e4:	10800317 	ldw	r2,12(r2)
 80025e8:	100f883a 	mov	r7,r2
 80025ec:	01800f44 	movi	r6,61
 80025f0:	01400044 	movi	r5,1
 80025f4:	01020174 	movhi	r4,2053
 80025f8:	213bd004 	addi	r4,r4,-4288
 80025fc:	80030a80 	call	80030a8 <fwrite>
            "\n[SSS] Informational error only, control returned to task to ");
         fprintf(stderr,
 8002600:	d0a00117 	ldw	r2,-32764(gp)
 8002604:	10800317 	ldw	r2,12(r2)
 8002608:	100f883a 	mov	r7,r2
 800260c:	01800b84 	movi	r6,46
 8002610:	01400044 	movi	r5,1
 8002614:	01020174 	movhi	r4,2053
 8002618:	213be004 	addi	r4,r4,-4224
 800261c:	80030a80 	call	80030a8 <fwrite>
            "complete processing at the application level.\n");
         OSSchedUnlock(); /* Reenable Task Switching */ 
 8002620:	80120900 	call	8012090 <OSSchedUnlock>
         return;         
 8002624:	00000d06 	br	800265c <alt_SSSErrorHandler+0x294>
         break;
      default:
         printf("\n[SSS]: See STDERR (FAULT_LEVEL is Unknown).\n");
 8002628:	01020174 	movhi	r4,2053
 800262c:	213bec04 	addi	r4,r4,-4176
 8002630:	80036480 	call	8003648 <puts>
         fprintf(stderr, "\n[SSS] FAULT_LEVEL is unknown!?!\n");
 8002634:	d0a00117 	ldw	r2,-32764(gp)
 8002638:	10800317 	ldw	r2,12(r2)
 800263c:	100f883a 	mov	r7,r2
 8002640:	01800844 	movi	r6,33
 8002644:	01400044 	movi	r5,1
 8002648:	01020174 	movhi	r4,2053
 800264c:	213bf804 	addi	r4,r4,-4128
 8002650:	80030a80 	call	80030a8 <fwrite>
   }
   while(1); /* Correct Program Flow never gets here. */
 8002654:	003fff06 	br	8002654 <alt_SSSErrorHandler+0x28c>
      return;
 8002658:	0001883a 	nop
}
 800265c:	e037883a 	mov	sp,fp
 8002660:	dfc00117 	ldw	ra,4(sp)
 8002664:	df000017 	ldw	fp,0(sp)
 8002668:	dec00204 	addi	sp,sp,8
 800266c:	f800283a 	ret

08002670 <SSSInitialTask>:
/* SSSInitialTask will initialize the NicheStack
 * TCP/IP Stack and then initialize the rest of the Simple Socket Server example 
 * RTOS structures and tasks. 
 */
void SSSInitialTask(void *task_data)
{
 8002670:	defffc04 	addi	sp,sp,-16
 8002674:	dfc00315 	stw	ra,12(sp)
 8002678:	df000215 	stw	fp,8(sp)
 800267c:	df000204 	addi	fp,sp,8
 8002680:	e13ffe15 	stw	r4,-8(fp)
   * NicheStack is initialized from a task, so that RTOS will have started, and 
   * I/O drivers are available.  Two tasks are created:
   *    "Inet main"  task with priority 2
   *    "clock tick" task with priority 3
   */   
  alt_iniche_init();
 8002684:	802ce600 	call	802ce60 <alt_iniche_init>
  netmain(); 
 8002688:	80289d00 	call	80289d0 <netmain>

  /* Wait for the network stack to be ready before proceeding. 
   * iniche_net_ready indicates that TCP/IP stack is ready, and IP address is obtained.
   */
  while (!iniche_net_ready)
 800268c:	00000206 	br	8002698 <SSSInitialTask+0x28>
    TK_SLEEP(1);
 8002690:	01000084 	movi	r4,2
 8002694:	8018a200 	call	8018a20 <OSTimeDly>
  while (!iniche_net_ready)
 8002698:	d0a08717 	ldw	r2,-32228(gp)
 800269c:	103ffc26 	beq	r2,zero,8002690 <SSSInitialTask+0x20>

  /* Now that the stack is running, perform the application initialization steps */
  
  /* Application Specific Task Launching Code Block Begin */

  printf("\nSimple Socket Server starting up\n");
 80026a0:	01020174 	movhi	r4,2053
 80026a4:	213c0704 	addi	r4,r4,-4068
 80026a8:	80036480 	call	8003648 <puts>

  /* Create the main simple socket server task. */
  TK_NEWTASK(&ssstask);
 80026ac:	01020174 	movhi	r4,2053
 80026b0:	21113004 	addi	r4,r4,17600
 80026b4:	802caf80 	call	802caf8 <TK_NEWTASK>
  
  /*create os data structures */
  SSSCreateOSDataStructs(); 
 80026b8:	8002cc80 	call	8002cc8 <SSSCreateOSDataStructs>

  /* create the other tasks */
  SSSCreateTasks();
 80026bc:	8002d4c0 	call	8002d4c <SSSCreateTasks>

  /* Application Specific Task Launching Code Block End */
  
  /*This task is deleted because there is no need for it to run again */
  error_code = OSTaskDel(OS_PRIO_SELF);
 80026c0:	01003fc4 	movi	r4,255
 80026c4:	8017b140 	call	8017b14 <OSTaskDel>
 80026c8:	e0bfffc5 	stb	r2,-1(fp)
  alt_uCOSIIErrorHandler(error_code, 0);
 80026cc:	e0bfffc3 	ldbu	r2,-1(fp)
 80026d0:	000b883a 	mov	r5,zero
 80026d4:	1009883a 	mov	r4,r2
 80026d8:	8001ab80 	call	8001ab8 <alt_uCOSIIErrorHandler>
  
  while (1); /* Correct Program Flow should never get here */
 80026dc:	003fff06 	br	80026dc <SSSInitialTask+0x6c>

080026e0 <main>:

/* Main creates a single task, SSSInitialTask, and starts task scheduler.
 */

int main (int argc, char* argv[], char* envp[])
{
 80026e0:	defff504 	addi	sp,sp,-44
 80026e4:	dfc00a15 	stw	ra,40(sp)
 80026e8:	df000915 	stw	fp,36(sp)
 80026ec:	df000904 	addi	fp,sp,36
 80026f0:	e13ffe15 	stw	r4,-8(fp)
 80026f4:	e17ffd15 	stw	r5,-12(fp)
 80026f8:	e1bffc15 	stw	r6,-16(fp)
  
  INT8U error_code;

  /* Clear the RTOS timer */
  OSTimeSet(0);
 80026fc:	0009883a 	mov	r4,zero
 8002700:	8018ec80 	call	8018ec8 <OSTimeSet>

  /* SSSInitialTask will initialize the NicheStack
   * TCP/IP Stack and then initialize the rest of the Simple Socket Server example 
   * RTOS structures and tasks. 
   */  
  error_code = OSTaskCreateExt(SSSInitialTask,
 8002704:	d8000415 	stw	zero,16(sp)
 8002708:	d8000315 	stw	zero,12(sp)
 800270c:	00820004 	movi	r2,2048
 8002710:	d8800215 	stw	r2,8(sp)
 8002714:	00820174 	movhi	r2,2053
 8002718:	109d4e04 	addi	r2,r2,30008
 800271c:	d8800115 	stw	r2,4(sp)
 8002720:	00800144 	movi	r2,5
 8002724:	d8800015 	stw	r2,0(sp)
 8002728:	01c00144 	movi	r7,5
 800272c:	018201b4 	movhi	r6,2054
 8002730:	31a54e04 	addi	r6,r6,-27336
 8002734:	000b883a 	mov	r5,zero
 8002738:	01020034 	movhi	r4,2048
 800273c:	21099c04 	addi	r4,r4,9840
 8002740:	80179380 	call	8017938 <OSTaskCreateExt>
 8002744:	e0bfffc5 	stb	r2,-1(fp)
                             SSS_INITIAL_TASK_PRIORITY,
                             SSSInitialTaskStk,
                             TASK_STACKSIZE,
                             NULL,
                             0);
  alt_uCOSIIErrorHandler(error_code, 0);
 8002748:	e0bfffc3 	ldbu	r2,-1(fp)
 800274c:	000b883a 	mov	r5,zero
 8002750:	1009883a 	mov	r4,r2
 8002754:	8001ab80 	call	8001ab8 <alt_uCOSIIErrorHandler>

  /*
   * As with all MicroC/OS-II designs, once the initial thread(s) and 
   * associated RTOS resources are declared, we start the RTOS. That's it!
   */
  OSStart();
 8002758:	80121740 	call	8012174 <OSStart>

  
  while(1); /* Correct Program Flow never gets here. */
 800275c:	003fff06 	br	800275c <main+0x7c>

08002760 <led_bit_toggle>:
 * bit 0, 1, 2, 3 - clear LED0, 1, 2, or 3
 * bit 4, 5, 6, 7 - set   LED0, 1, 2, or 3
 */
 
void led_bit_toggle(OS_FLAGS bit)
{
 8002760:	defffc04 	addi	sp,sp,-16
 8002764:	dfc00315 	stw	ra,12(sp)
 8002768:	df000215 	stw	fp,8(sp)
 800276c:	df000204 	addi	fp,sp,8
 8002770:	2005883a 	mov	r2,r4
 8002774:	e0bffe0d 	sth	r2,-8(fp)
    OS_FLAGS  led_4_val;
    INT8U error_code;
    
    led_4_val = OSFlagQuery(SSSLEDEventFlag, &error_code);
 8002778:	d0a05917 	ldw	r2,-32412(gp)
 800277c:	e0ffff44 	addi	r3,fp,-3
 8002780:	180b883a 	mov	r5,r3
 8002784:	1009883a 	mov	r4,r2
 8002788:	8014ac00 	call	8014ac0 <OSFlagQuery>
 800278c:	e0bfff8d 	sth	r2,-2(fp)
    alt_uCOSIIErrorHandler(error_code, 0);
 8002790:	e0bfff43 	ldbu	r2,-3(fp)
 8002794:	10803fcc 	andi	r2,r2,255
 8002798:	000b883a 	mov	r5,zero
 800279c:	1009883a 	mov	r4,r2
 80027a0:	8001ab80 	call	8001ab8 <alt_uCOSIIErrorHandler>

    if ( bit < 16 )
 80027a4:	e0bffe0b 	ldhu	r2,-8(fp)
 80027a8:	10800428 	cmpgeui	r2,r2,16
 80027ac:	10000f1e 	bne	r2,zero,80027ec <led_bit_toggle+0x8c>
    {
        led_4_val = OSFlagPost(SSSLEDEventFlag, bit, OS_FLAG_CLR, &error_code);
 80027b0:	d0a05917 	ldw	r2,-32412(gp)
 80027b4:	e0fffe0b 	ldhu	r3,-8(fp)
 80027b8:	e13fff44 	addi	r4,fp,-3
 80027bc:	200f883a 	mov	r7,r4
 80027c0:	000d883a 	mov	r6,zero
 80027c4:	180b883a 	mov	r5,r3
 80027c8:	1009883a 	mov	r4,r2
 80027cc:	80147140 	call	8014714 <OSFlagPost>
 80027d0:	e0bfff8d 	sth	r2,-2(fp)
        alt_uCOSIIErrorHandler(error_code, 0);
 80027d4:	e0bfff43 	ldbu	r2,-3(fp)
 80027d8:	10803fcc 	andi	r2,r2,255
 80027dc:	000b883a 	mov	r5,zero
 80027e0:	1009883a 	mov	r4,r2
 80027e4:	8001ab80 	call	8001ab8 <alt_uCOSIIErrorHandler>
 80027e8:	00001006 	br	800282c <led_bit_toggle+0xcc>
    }
    else
    {
        // shift the set bits into positions 0, 1, 2, or 3
        led_4_val = OSFlagPost(SSSLEDEventFlag, bit >> 4, OS_FLAG_SET, &error_code);
 80027ec:	d0e05917 	ldw	r3,-32412(gp)
 80027f0:	e0bffe0b 	ldhu	r2,-8(fp)
 80027f4:	1004d13a 	srli	r2,r2,4
 80027f8:	10bfffcc 	andi	r2,r2,65535
 80027fc:	e13fff44 	addi	r4,fp,-3
 8002800:	200f883a 	mov	r7,r4
 8002804:	01800044 	movi	r6,1
 8002808:	100b883a 	mov	r5,r2
 800280c:	1809883a 	mov	r4,r3
 8002810:	80147140 	call	8014714 <OSFlagPost>
 8002814:	e0bfff8d 	sth	r2,-2(fp)
        alt_uCOSIIErrorHandler(error_code, 0);
 8002818:	e0bfff43 	ldbu	r2,-3(fp)
 800281c:	10803fcc 	andi	r2,r2,255
 8002820:	000b883a 	mov	r5,zero
 8002824:	1009883a 	mov	r4,r2
 8002828:	8001ab80 	call	8001ab8 <alt_uCOSIIErrorHandler>
    }

    #ifdef LED_PIO_BASE
       IOWR_ALTERA_AVALON_PIO_DATA(LED_PIO_BASE, led_4_val);
 800282c:	e0ffff8b 	ldhu	r3,-2(fp)
 8002830:	00860034 	movhi	r2,6144
 8002834:	10cff835 	stwio	r3,16352(r2)
       //printf("Value for LED_PIO_BASE set to %d.\n", (INT8U)led_4_val);
    #endif
      
    return;
 8002838:	0001883a 	nop
    //    {
    //       led_4_val = OSFlagPost(SSSLEDEventFlag, bit, OS_FLAG_SET, &error_code);
    //       alt_uCOSIIErrorHandler(error_code, 0);
    //    }

}
 800283c:	e037883a 	mov	sp,fp
 8002840:	dfc00117 	ldw	ra,4(sp)
 8002844:	df000017 	ldw	fp,0(sp)
 8002848:	dec00204 	addi	sp,sp,8
 800284c:	f800283a 	ret

08002850 <LEDManagementTask>:
 * The task will read the SSSLedCommandQ for an
 * in-coming message command from the SSSSimpleSocketServerTask.
 */

void LEDManagementTask()
{
 8002850:	defffc04 	addi	sp,sp,-16
 8002854:	dfc00315 	stw	ra,12(sp)
 8002858:	df000215 	stw	fp,8(sp)
 800285c:	df000204 	addi	fp,sp,8
  INT32U led_command;
  INT8U error_code;

  while(1)
  {
    led_command = (INT32U)OSQPend(SSSLEDCommandQ, 0, &error_code);
 8002860:	d0a05817 	ldw	r2,-32416(gp)
 8002864:	e0fffec4 	addi	r3,fp,-5
 8002868:	180d883a 	mov	r6,r3
 800286c:	000b883a 	mov	r5,zero
 8002870:	1009883a 	mov	r4,r2
 8002874:	8015d1c0 	call	8015d1c <OSQPend>
 8002878:	e0bfff15 	stw	r2,-4(fp)

    alt_uCOSIIErrorHandler(error_code, 0);
 800287c:	e0bffec3 	ldbu	r2,-5(fp)
 8002880:	10803fcc 	andi	r2,r2,255
 8002884:	000b883a 	mov	r5,zero
 8002888:	1009883a 	mov	r4,r2
 800288c:	8001ab80 	call	8001ab8 <alt_uCOSIIErrorHandler>

    led_bit_toggle(led_command & 0xff);
 8002890:	e0bfff17 	ldw	r2,-4(fp)
 8002894:	10bfffcc 	andi	r2,r2,65535
 8002898:	10803fcc 	andi	r2,r2,255
 800289c:	1009883a 	mov	r4,r2
 80028a0:	80027600 	call	8002760 <led_bit_toggle>
    led_command = (INT32U)OSQPend(SSSLEDCommandQ, 0, &error_code);
 80028a4:	003fee06 	br	8002860 <LEDManagementTask+0x10>

080028a8 <get_mac_addr>:
* Read the MAC address in a board specific way. Prompt user to enter serial 
* number to generate MAC address if failed to read from flash.
*
*/
int get_mac_addr(NET net, unsigned char mac_addr[6])
{
 80028a8:	defffb04 	addi	sp,sp,-20
 80028ac:	dfc00415 	stw	ra,16(sp)
 80028b0:	df000315 	stw	fp,12(sp)
 80028b4:	df000304 	addi	fp,sp,12
 80028b8:	e13ffe15 	stw	r4,-8(fp)
 80028bc:	e17ffd15 	stw	r5,-12(fp)
    error_t error = 0;
 80028c0:	e03fff15 	stw	zero,-4(fp)
    
    error = get_board_mac_addr(mac_addr);
 80028c4:	e13ffd17 	ldw	r4,-12(fp)
 80028c8:	8002c700 	call	8002c70 <get_board_mac_addr>
 80028cc:	e0bfff15 	stw	r2,-4(fp)
    
    if(error)
 80028d0:	e0bfff17 	ldw	r2,-4(fp)
 80028d4:	10000326 	beq	r2,zero,80028e4 <get_mac_addr+0x3c>
    {
        /* Failed read MAC address from flash, prompt user to enter serial 
           number to generate MAC address. */
        error = generate_mac_addr(mac_addr);
 80028d8:	e13ffd17 	ldw	r4,-12(fp)
 80028dc:	8002b400 	call	8002b40 <generate_mac_addr>
 80028e0:	e0bfff15 	stw	r2,-4(fp)
    }
    return error;
 80028e4:	e0bfff17 	ldw	r2,-4(fp)
}
 80028e8:	e037883a 	mov	sp,fp
 80028ec:	dfc00117 	ldw	ra,4(sp)
 80028f0:	df000017 	ldw	fp,0(sp)
 80028f4:	dec00204 	addi	sp,sp,8
 80028f8:	f800283a 	ret

080028fc <get_ip_addr>:
int get_ip_addr(alt_iniche_dev *p_dev,
                ip_addr* ipaddr,
                ip_addr* netmask,
                ip_addr* gw,
                int* use_dhcp)
{
 80028fc:	defffb04 	addi	sp,sp,-20
 8002900:	df000415 	stw	fp,16(sp)
 8002904:	df000404 	addi	fp,sp,16
 8002908:	e13fff15 	stw	r4,-4(fp)
 800290c:	e17ffe15 	stw	r5,-8(fp)
 8002910:	e1bffd15 	stw	r6,-12(fp)
 8002914:	e1fffc15 	stw	r7,-16(fp)

    IP4_ADDR(*ipaddr, IPADDR0, IPADDR1, IPADDR2, IPADDR3);
 8002918:	e0bffe17 	ldw	r2,-8(fp)
 800291c:	10000015 	stw	zero,0(r2)
    IP4_ADDR(*gw, GWADDR0, GWADDR1, GWADDR2, GWADDR3);
 8002920:	e0bffc17 	ldw	r2,-16(fp)
 8002924:	10000015 	stw	zero,0(r2)
    IP4_ADDR(*netmask, MSKADDR0, MSKADDR1, MSKADDR2, MSKADDR3);
 8002928:	e0fffd17 	ldw	r3,-12(fp)
 800292c:	00804034 	movhi	r2,256
 8002930:	10bfffc4 	addi	r2,r2,-1
 8002934:	18800015 	stw	r2,0(r3)

#ifdef DHCP_CLIENT
    *use_dhcp = 1;
 8002938:	e0800117 	ldw	r2,4(fp)
 800293c:	00c00044 	movi	r3,1
 8002940:	10c00015 	stw	r3,0(r2)
        ip4_addr3(*ipaddr),
        ip4_addr4(*ipaddr));
#endif /* not DHCP_CLIENT */

    /* Non-standard API: return 1 for success */
    return 1;
 8002944:	00800044 	movi	r2,1
}
 8002948:	e037883a 	mov	sp,fp
 800294c:	df000017 	ldw	fp,0(sp)
 8002950:	dec00104 	addi	sp,sp,4
 8002954:	f800283a 	ret

08002958 <get_serial_number>:
*
* Prompt user to enter 9-digit serial number. 
*
*/
alt_u32 get_serial_number (void)
{
 8002958:	defff904 	addi	sp,sp,-28
 800295c:	dfc00615 	stw	ra,24(sp)
 8002960:	df000515 	stw	fp,20(sp)
 8002964:	df000504 	addi	fp,sp,20
    alt_u32 ser_num = 0;
 8002968:	e03fff15 	stw	zero,-4(fp)
    char serial_number[9];
    int i = 0;
 800296c:	e03ffe15 	stw	zero,-8(fp)
    
    while(!ser_num)
 8002970:	00005606 	br	8002acc <get_serial_number+0x174>
    {
        printf("Please enter your 9-digit serial number. This is printed on a \n");
 8002974:	01020174 	movhi	r4,2053
 8002978:	213c1004 	addi	r4,r4,-4032
 800297c:	80036480 	call	8003648 <puts>
        printf("label under your Nios dev. board. The first 3 digits of the \n");
 8002980:	01020174 	movhi	r4,2053
 8002984:	213c2004 	addi	r4,r4,-3968
 8002988:	80036480 	call	8003648 <puts>
        printf("label are ASJ and the serial number follows this.\n -->");
 800298c:	01020174 	movhi	r4,2053
 8002990:	213c3004 	addi	r4,r4,-3904
 8002994:	80035240 	call	8003524 <printf>
        
        for(i=0; i<9; i++)
 8002998:	e03ffe15 	stw	zero,-8(fp)
 800299c:	00001d06 	br	8002a14 <get_serial_number+0xbc>
        {
            serial_number[i] = getchar();
 80029a0:	80030e40 	call	80030e4 <getchar>
 80029a4:	1007883a 	mov	r3,r2
 80029a8:	e0bffe17 	ldw	r2,-8(fp)
 80029ac:	e085883a 	add	r2,fp,r2
 80029b0:	10fffbc5 	stb	r3,-17(r2)
            putchar(serial_number[i]);
 80029b4:	e0bffe17 	ldw	r2,-8(fp)
 80029b8:	e085883a 	add	r2,fp,r2
 80029bc:	10bffbc3 	ldbu	r2,-17(r2)
 80029c0:	10803fcc 	andi	r2,r2,255
 80029c4:	1080201c 	xori	r2,r2,128
 80029c8:	10bfe004 	addi	r2,r2,-128
 80029cc:	1009883a 	mov	r4,r2
 80029d0:	80035640 	call	8003564 <putchar>
            
            /* Handle backspaces.  How civilized. */
            if ((serial_number[i] == 0x08) && (i >= 0)) 
 80029d4:	e0bffe17 	ldw	r2,-8(fp)
 80029d8:	e085883a 	add	r2,fp,r2
 80029dc:	10bffbc3 	ldbu	r2,-17(r2)
 80029e0:	10803fcc 	andi	r2,r2,255
 80029e4:	1080201c 	xori	r2,r2,128
 80029e8:	10bfe004 	addi	r2,r2,-128
 80029ec:	10800218 	cmpnei	r2,r2,8
 80029f0:	1000051e 	bne	r2,zero,8002a08 <get_serial_number+0xb0>
 80029f4:	e0bffe17 	ldw	r2,-8(fp)
 80029f8:	10000316 	blt	r2,zero,8002a08 <get_serial_number+0xb0>
            {
                i--;
 80029fc:	e0bffe17 	ldw	r2,-8(fp)
 8002a00:	10bfffc4 	addi	r2,r2,-1
 8002a04:	e0bffe15 	stw	r2,-8(fp)
        for(i=0; i<9; i++)
 8002a08:	e0bffe17 	ldw	r2,-8(fp)
 8002a0c:	10800044 	addi	r2,r2,1
 8002a10:	e0bffe15 	stw	r2,-8(fp)
 8002a14:	e0bffe17 	ldw	r2,-8(fp)
 8002a18:	10800250 	cmplti	r2,r2,9
 8002a1c:	103fe01e 	bne	r2,zero,80029a0 <get_serial_number+0x48>
            }
        }
        printf("\n");
 8002a20:	01000284 	movi	r4,10
 8002a24:	80035640 	call	8003564 <putchar>
                
        for(i=0; i<9; i++)
 8002a28:	e03ffe15 	stw	zero,-8(fp)
 8002a2c:	00002406 	br	8002ac0 <get_serial_number+0x168>
        {
            if (isdigit(serial_number[i]))
 8002a30:	e0bffe17 	ldw	r2,-8(fp)
 8002a34:	e085883a 	add	r2,fp,r2
 8002a38:	10bffbc3 	ldbu	r2,-17(r2)
 8002a3c:	10803fcc 	andi	r2,r2,255
 8002a40:	1080201c 	xori	r2,r2,128
 8002a44:	10bfe004 	addi	r2,r2,-128
 8002a48:	10c00044 	addi	r3,r2,1
 8002a4c:	00820174 	movhi	r2,2053
 8002a50:	10bccf04 	addi	r2,r2,-3268
 8002a54:	1885883a 	add	r2,r3,r2
 8002a58:	10800003 	ldbu	r2,0(r2)
 8002a5c:	10803fcc 	andi	r2,r2,255
 8002a60:	1080010c 	andi	r2,r2,4
 8002a64:	10000e26 	beq	r2,zero,8002aa0 <get_serial_number+0x148>
            {
                ser_num *= 10;
 8002a68:	e0bfff17 	ldw	r2,-4(fp)
 8002a6c:	108002a4 	muli	r2,r2,10
 8002a70:	e0bfff15 	stw	r2,-4(fp)
                ser_num += serial_number[i] - '0';
 8002a74:	e0bffe17 	ldw	r2,-8(fp)
 8002a78:	e085883a 	add	r2,fp,r2
 8002a7c:	10bffbc3 	ldbu	r2,-17(r2)
 8002a80:	10c03fcc 	andi	r3,r2,255
 8002a84:	18c0201c 	xori	r3,r3,128
 8002a88:	18ffe004 	addi	r3,r3,-128
 8002a8c:	e0bfff17 	ldw	r2,-4(fp)
 8002a90:	1885883a 	add	r2,r3,r2
 8002a94:	10bff404 	addi	r2,r2,-48
 8002a98:	e0bfff15 	stw	r2,-4(fp)
 8002a9c:	00000506 	br	8002ab4 <get_serial_number+0x15c>
            }
            else
            {
                ser_num = 0;
 8002aa0:	e03fff15 	stw	zero,-4(fp)
                printf("Serial number only contains decimal digits and is non-zero\n");
 8002aa4:	01020174 	movhi	r4,2053
 8002aa8:	213c3e04 	addi	r4,r4,-3848
 8002aac:	80036480 	call	8003648 <puts>
                break;
 8002ab0:	00000606 	br	8002acc <get_serial_number+0x174>
        for(i=0; i<9; i++)
 8002ab4:	e0bffe17 	ldw	r2,-8(fp)
 8002ab8:	10800044 	addi	r2,r2,1
 8002abc:	e0bffe15 	stw	r2,-8(fp)
 8002ac0:	e0bffe17 	ldw	r2,-8(fp)
 8002ac4:	10800250 	cmplti	r2,r2,9
 8002ac8:	103fd91e 	bne	r2,zero,8002a30 <get_serial_number+0xd8>
    while(!ser_num)
 8002acc:	e0bfff17 	ldw	r2,-4(fp)
 8002ad0:	103fa826 	beq	r2,zero,8002974 <get_serial_number+0x1c>
            }
        }
    }
    
    return ser_num;
 8002ad4:	e0bfff17 	ldw	r2,-4(fp)
}
 8002ad8:	e037883a 	mov	sp,fp
 8002adc:	dfc00117 	ldw	ra,4(sp)
 8002ae0:	df000017 	ldw	fp,0(sp)
 8002ae4:	dec00204 	addi	sp,sp,8
 8002ae8:	f800283a 	ret

08002aec <generate_and_store_mac_addr>:
 * sections. These fail-safe static settings are compatible with previous
 * Nios Ethernet designs, and allow the "factory-safe" design to behave 
 * as expected if the last flash sector is erased.
 */
error_t generate_and_store_mac_addr()
{
 8002aec:	defffc04 	addi	sp,sp,-16
 8002af0:	dfc00315 	stw	ra,12(sp)
 8002af4:	df000215 	stw	fp,8(sp)
 8002af8:	df000204 	addi	fp,sp,8
    error_t error = -1;
 8002afc:	00bfffc4 	movi	r2,-1
 8002b00:	e0bfff15 	stw	r2,-4(fp)
    alt_u32 ser_num = 0;
 8002b04:	e03ffe15 	stw	zero,-8(fp)
#ifdef EXT_FLASH_NAME
    char flash_content[32]; 
    alt_flash_fd* flash_handle;
#endif
    
    printf("Can't read the MAC address from your board.\n");
 8002b08:	01020174 	movhi	r4,2053
 8002b0c:	213c4d04 	addi	r4,r4,-3788
 8002b10:	80036480 	call	8003648 <puts>
    printf("A MAC address and static network settings will be assigned.\n");
 8002b14:	01020174 	movhi	r4,2053
 8002b18:	213c5804 	addi	r4,r4,-3744
 8002b1c:	80036480 	call	8003648 <puts>
    
    ser_num = get_serial_number();
 8002b20:	80029580 	call	8002958 <get_serial_number>
 8002b24:	e0bffe15 	stw	r2,-8(fp)
            error = 0;
        }
#endif          
    }

    return error;    
 8002b28:	e0bfff17 	ldw	r2,-4(fp)
}
 8002b2c:	e037883a 	mov	sp,fp
 8002b30:	dfc00117 	ldw	ra,4(sp)
 8002b34:	df000017 	ldw	fp,0(sp)
 8002b38:	dec00204 	addi	sp,sp,8
 8002b3c:	f800283a 	ret

08002b40 <generate_mac_addr>:
 * Development Board serial number is 040800017, the corresponding ethernet 
 * number generated will be 00:07:ED:FF:8F:11.
 * 
 */
error_t generate_mac_addr(unsigned char mac_addr[6])
{
 8002b40:	defff804 	addi	sp,sp,-32
 8002b44:	dfc00715 	stw	ra,28(sp)
 8002b48:	df000615 	stw	fp,24(sp)
 8002b4c:	df000604 	addi	fp,sp,24
 8002b50:	e13ffd15 	stw	r4,-12(fp)
    error_t error = -1;
 8002b54:	00bfffc4 	movi	r2,-1
 8002b58:	e0bfff15 	stw	r2,-4(fp)
    alt_u32 ser_num = 0;
 8002b5c:	e03ffe15 	stw	zero,-8(fp)
/* TCM 10-12-2021
 * The code below MODIFIED to not ask about serial number. Always return
 * specific (known good) MAC Address
 *   */

    printf("\nCan't read the MAC address from your board. We will assign you\n");
 8002b60:	01020174 	movhi	r4,2053
 8002b64:	213c6704 	addi	r4,r4,-3684
 8002b68:	80036480 	call	8003648 <puts>
    printf("a MAC address.\n\n");
 8002b6c:	01020174 	movhi	r4,2053
 8002b70:	213c7704 	addi	r4,r4,-3620
 8002b74:	80036480 	call	8003648 <puts>
    
/*    ser_num = get_serial_number(); */
    ser_num = 1;
 8002b78:	00800044 	movi	r2,1
 8002b7c:	e0bffe15 	stw	r2,-8(fp)
  
    if (ser_num)
 8002b80:	e0bffe17 	ldw	r2,-8(fp)
 8002b84:	10003426 	beq	r2,zero,8002c58 <generate_mac_addr+0x118>
    {
        /* This is the Altera Vendor ID */
        mac_addr[0] = 0x0;
 8002b88:	e0bffd17 	ldw	r2,-12(fp)
 8002b8c:	10000005 	stb	zero,0(r2)
        mac_addr[1] = 0x7;
 8002b90:	e0bffd17 	ldw	r2,-12(fp)
 8002b94:	10800044 	addi	r2,r2,1
 8002b98:	00c001c4 	movi	r3,7
 8002b9c:	10c00005 	stb	r3,0(r2)
        mac_addr[2] = 0xed;
 8002ba0:	e0bffd17 	ldw	r2,-12(fp)
 8002ba4:	10800084 	addi	r2,r2,2
 8002ba8:	00fffb44 	movi	r3,-19
 8002bac:	10c00005 	stb	r3,0(r2)
        mac_addr[4] = (ser_num & 0xff00) >> 8;
        mac_addr[5] = ser_num & 0xff;
*/

		/* TCM - Force a valid MAC address */
        mac_addr[3] = 0x2A;
 8002bb0:	e0bffd17 	ldw	r2,-12(fp)
 8002bb4:	108000c4 	addi	r2,r2,3
 8002bb8:	00c00a84 	movi	r3,42
 8002bbc:	10c00005 	stb	r3,0(r2)
        mac_addr[4] = 0x22;
 8002bc0:	e0bffd17 	ldw	r2,-12(fp)
 8002bc4:	10800104 	addi	r2,r2,4
 8002bc8:	00c00884 	movi	r3,34
 8002bcc:	10c00005 	stb	r3,0(r2)
        mac_addr[5] = 0x16;
 8002bd0:	e0bffd17 	ldw	r2,-12(fp)
 8002bd4:	10800144 	addi	r2,r2,5
 8002bd8:	00c00584 	movi	r3,22
 8002bdc:	10c00005 	stb	r3,0(r2)
        
        printf("Your Ethernet MAC address is %02x:%02x:%02x:%02x:%02x:%02x\n", 
            mac_addr[0],
 8002be0:	e0bffd17 	ldw	r2,-12(fp)
 8002be4:	10800003 	ldbu	r2,0(r2)
        printf("Your Ethernet MAC address is %02x:%02x:%02x:%02x:%02x:%02x\n", 
 8002be8:	11403fcc 	andi	r5,r2,255
            mac_addr[1],
 8002bec:	e0bffd17 	ldw	r2,-12(fp)
 8002bf0:	10800044 	addi	r2,r2,1
 8002bf4:	10800003 	ldbu	r2,0(r2)
        printf("Your Ethernet MAC address is %02x:%02x:%02x:%02x:%02x:%02x\n", 
 8002bf8:	11803fcc 	andi	r6,r2,255
            mac_addr[2],
 8002bfc:	e0bffd17 	ldw	r2,-12(fp)
 8002c00:	10800084 	addi	r2,r2,2
 8002c04:	10800003 	ldbu	r2,0(r2)
        printf("Your Ethernet MAC address is %02x:%02x:%02x:%02x:%02x:%02x\n", 
 8002c08:	11c03fcc 	andi	r7,r2,255
            mac_addr[3],
 8002c0c:	e0bffd17 	ldw	r2,-12(fp)
 8002c10:	108000c4 	addi	r2,r2,3
 8002c14:	10800003 	ldbu	r2,0(r2)
        printf("Your Ethernet MAC address is %02x:%02x:%02x:%02x:%02x:%02x\n", 
 8002c18:	10803fcc 	andi	r2,r2,255
            mac_addr[4],
 8002c1c:	e0fffd17 	ldw	r3,-12(fp)
 8002c20:	18c00104 	addi	r3,r3,4
 8002c24:	18c00003 	ldbu	r3,0(r3)
        printf("Your Ethernet MAC address is %02x:%02x:%02x:%02x:%02x:%02x\n", 
 8002c28:	18c03fcc 	andi	r3,r3,255
            mac_addr[5]);
 8002c2c:	e13ffd17 	ldw	r4,-12(fp)
 8002c30:	21000144 	addi	r4,r4,5
 8002c34:	21000003 	ldbu	r4,0(r4)
        printf("Your Ethernet MAC address is %02x:%02x:%02x:%02x:%02x:%02x\n", 
 8002c38:	21003fcc 	andi	r4,r4,255
 8002c3c:	d9000215 	stw	r4,8(sp)
 8002c40:	d8c00115 	stw	r3,4(sp)
 8002c44:	d8800015 	stw	r2,0(sp)
 8002c48:	01020174 	movhi	r4,2053
 8002c4c:	213c7b04 	addi	r4,r4,-3604
 8002c50:	80035240 	call	8003524 <printf>
        
        error = 0;
 8002c54:	e03fff15 	stw	zero,-4(fp)
    }
  
    return error;    
 8002c58:	e0bfff17 	ldw	r2,-4(fp)
}
 8002c5c:	e037883a 	mov	sp,fp
 8002c60:	dfc00117 	ldw	ra,4(sp)
 8002c64:	df000017 	ldw	fp,0(sp)
 8002c68:	dec00204 	addi	sp,sp,8
 8002c6c:	f800283a 	ret

08002c70 <get_board_mac_addr>:
*
* Read the MAC address in a board specific way
*
*/
error_t get_board_mac_addr(unsigned char mac_addr[6])
{
 8002c70:	defffd04 	addi	sp,sp,-12
 8002c74:	df000215 	stw	fp,8(sp)
 8002c78:	df000204 	addi	fp,sp,8
 8002c7c:	e13ffe15 	stw	r4,-8(fp)
    error_t error = -1;
 8002c80:	00bfffc4 	movi	r2,-1
 8002c84:	e0bfff15 	stw	r2,-4(fp)
            mac_addr[5]);
    
    }
#endif
    
    return error;
 8002c88:	e0bfff17 	ldw	r2,-4(fp)
}
 8002c8c:	e037883a 	mov	sp,fp
 8002c90:	df000017 	ldw	fp,0(sp)
 8002c94:	dec00104 	addi	sp,sp,4
 8002c98:	f800283a 	ret

08002c9c <FindLastFlashSectorOffset>:
 * in pLastFlashSectorOffset.
 */

int FindLastFlashSectorOffset(
    alt_u32                     *pLastFlashSectorOffset)
{
 8002c9c:	defffd04 	addi	sp,sp,-12
 8002ca0:	df000215 	stw	fp,8(sp)
 8002ca4:	df000204 	addi	fp,sp,8
 8002ca8:	e13ffe15 	stw	r4,-8(fp)
    int                         error = -1;
 8002cac:	00bfffc4 	movi	r2,-1
 8002cb0:	e0bfff15 	stw	r2,-4(fp)
    /* Return results. */
    if (!error)
        *pLastFlashSectorOffset = lastFlashSectorOffset;
#endif

    return (error);
 8002cb4:	e0bfff17 	ldw	r2,-4(fp)
}
 8002cb8:	e037883a 	mov	sp,fp
 8002cbc:	df000017 	ldw	fp,0(sp)
 8002cc0:	dec00104 	addi	sp,sp,4
 8002cc4:	f800283a 	ret

08002cc8 <SSSCreateOSDataStructs>:
/*
 * Create our MicroC/OS-II resources. All of the resources beginning with 
 * "SSS" are declared in this file, and created in this function.
 */
void SSSCreateOSDataStructs(void)
{
 8002cc8:	defffd04 	addi	sp,sp,-12
 8002ccc:	dfc00215 	stw	ra,8(sp)
 8002cd0:	df000115 	stw	fp,4(sp)
 8002cd4:	df000104 	addi	fp,sp,4
  /*
  * Create the resource for our MicroC/OS-II Queue for sending commands 
  * received on the TCP/IP socket from the SSSSimpleSocketServerTask()
  * to the LEDManagementTask().
  */
  SSSLEDCommandQ = OSQCreate(&SSSLEDCommandQTbl[0], SSS_LED_COMMAND_Q_SIZE);
 8002cd8:	01400784 	movi	r5,30
 8002cdc:	010201b4 	movhi	r4,2054
 8002ce0:	21254e04 	addi	r4,r4,-27336
 8002ce4:	80158200 	call	8015820 <OSQCreate>
 8002ce8:	d0a05815 	stw	r2,-32416(gp)
  if (!SSSLEDCommandQ)
 8002cec:	d0a05817 	ldw	r2,-32416(gp)
 8002cf0:	1000041e 	bne	r2,zero,8002d04 <SSSCreateOSDataStructs+0x3c>
  {
     alt_uCOSIIErrorHandler(EXPANDED_DIAGNOSIS_CODE, 
 8002cf4:	01420174 	movhi	r5,2053
 8002cf8:	297c8a04 	addi	r5,r5,-3544
 8002cfc:	01003fc4 	movi	r4,255
 8002d00:	8001ab80 	call	8001ab8 <alt_uCOSIIErrorHandler>
  
 /*
  * Create our MicroC/OS-II LED Event Flag.  Each flag corresponds to one of
  * the LEDs on the Nios Development board, D0 - D7. 
  */   
  SSSLEDEventFlag = OSFlagCreate(0, &error_code);
 8002d04:	e0bfffc4 	addi	r2,fp,-1
 8002d08:	100b883a 	mov	r5,r2
 8002d0c:	0009883a 	mov	r4,zero
 8002d10:	8013ac40 	call	8013ac4 <OSFlagCreate>
 8002d14:	d0a05915 	stw	r2,-32412(gp)
  if (!SSSLEDEventFlag)
 8002d18:	d0a05917 	ldw	r2,-32412(gp)
 8002d1c:	1000051e 	bne	r2,zero,8002d34 <SSSCreateOSDataStructs+0x6c>
  {
     alt_uCOSIIErrorHandler(error_code, 0);
 8002d20:	e0bfffc3 	ldbu	r2,-1(fp)
 8002d24:	10803fcc 	andi	r2,r2,255
 8002d28:	000b883a 	mov	r5,zero
 8002d2c:	1009883a 	mov	r4,r2
 8002d30:	8001ab80 	call	8001ab8 <alt_uCOSIIErrorHandler>
  }
}
 8002d34:	0001883a 	nop
 8002d38:	e037883a 	mov	sp,fp
 8002d3c:	dfc00117 	ldw	ra,4(sp)
 8002d40:	df000017 	ldw	fp,0(sp)
 8002d44:	dec00204 	addi	sp,sp,8
 8002d48:	f800283a 	ret

08002d4c <SSSCreateTasks>:
/* This function creates tasks used in this example which do not use sockets.
 * Tasks which use Interniche sockets must be created with TK_NEWTASK.
 */
 
void SSSCreateTasks(void)
{
 8002d4c:	defff804 	addi	sp,sp,-32
 8002d50:	dfc00715 	stw	ra,28(sp)
 8002d54:	df000615 	stw	fp,24(sp)
 8002d58:	df000604 	addi	fp,sp,24
   INT8U error_code;
  
   error_code = OSTaskCreateExt(LEDManagementTask,
 8002d5c:	d8000415 	stw	zero,16(sp)
 8002d60:	d8000315 	stw	zero,12(sp)
 8002d64:	00820004 	movi	r2,2048
 8002d68:	d8800215 	stw	r2,8(sp)
 8002d6c:	008201b4 	movhi	r2,2054
 8002d70:	10a56c04 	addi	r2,r2,-27216
 8002d74:	d8800115 	stw	r2,4(sp)
 8002d78:	008001c4 	movi	r2,7
 8002d7c:	d8800015 	stw	r2,0(sp)
 8002d80:	01c001c4 	movi	r7,7
 8002d84:	018201b4 	movhi	r6,2054
 8002d88:	31ad6b04 	addi	r6,r6,-19028
 8002d8c:	000b883a 	mov	r5,zero
 8002d90:	01020034 	movhi	r4,2048
 8002d94:	210a1404 	addi	r4,r4,10320
 8002d98:	80179380 	call	8017938 <OSTaskCreateExt>
 8002d9c:	e0bfffc5 	stb	r2,-1(fp)
                              LEDManagementTaskStk,
                              TASK_STACKSIZE,
                              NULL,
                              0);

   alt_uCOSIIErrorHandler(error_code, 0);
 8002da0:	e0bfffc3 	ldbu	r2,-1(fp)
 8002da4:	000b883a 	mov	r5,zero
 8002da8:	1009883a 	mov	r4,r2
 8002dac:	8001ab80 	call	8001ab8 <alt_uCOSIIErrorHandler>

}
 8002db0:	0001883a 	nop
 8002db4:	e037883a 	mov	sp,fp
 8002db8:	dfc00117 	ldw	ra,4(sp)
 8002dbc:	df000017 	ldw	fp,0(sp)
 8002dc0:	dec00204 	addi	sp,sp,8
 8002dc4:	f800283a 	ret

08002dc8 <SSSSimpleSocketServerTask>:
 * OpenHPSDR discovery socket on port 1024. It listens for any received packet
 * on any established socket and dispatches it accordingly.
 *
 */
void SSSSimpleSocketServerTask()
{
 8002dc8:	deff9904 	addi	sp,sp,-412
 8002dcc:	dfc06615 	stw	ra,408(sp)
 8002dd0:	df006515 	stw	fp,404(sp)
 8002dd4:	df006504 	addi	fp,sp,404
  int fd_disc_recv;		// file descriptor (fd) of the receive discovery socket
  struct sockaddr_in addrhost, nilclient;
  fd_set readfds;

  memset(&addrhost, 0, sizeof(struct sockaddr_in));
 8002dd8:	e0bff604 	addi	r2,fp,-40
 8002ddc:	01800404 	movi	r6,16
 8002de0:	000b883a 	mov	r5,zero
 8002de4:	1009883a 	mov	r4,r2
 8002de8:	800326c0 	call	800326c <memset>
  memset(&nilclient, 0, sizeof(struct sockaddr_in));		// discovery request doesn't use client address / port
 8002dec:	e0bff204 	addi	r2,fp,-56
 8002df0:	01800404 	movi	r6,16
 8002df4:	000b883a 	mov	r5,zero
 8002df8:	1009883a 	mov	r4,r2
 8002dfc:	800326c0 	call	800326c <memset>
  
  initChan();		// Clear table of UDP Channels.
 8002e00:	80003800 	call	8000380 <initChan>
  initItfcMap();		// Build the Interface Map table.
 8002e04:	80017500 	call	8001750 <initItfcMap>
   * protocol and address families respectively. However, there is usually only
   * 1 address per protocol family. Thus PF_INET and AF_INET can be interchanged.
   * In the case of NicheStack, only the use of AF_INET is supported.
   * PF_INET is not supported in NicheStack.
   */ 
  if ((fd_disc_recv = socket(AF_INET, SOCK_DGRAM, 0)) < 0)
 8002e08:	000d883a 	mov	r6,zero
 8002e0c:	01400084 	movi	r5,2
 8002e10:	01000084 	movi	r4,2
 8002e14:	802f5000 	call	802f500 <t_socket>
 8002e18:	e0bffd15 	stw	r2,-12(fp)
 8002e1c:	e0bffd17 	ldw	r2,-12(fp)
 8002e20:	1000040e 	bge	r2,zero,8002e34 <SSSSimpleSocketServerTask+0x6c>
  {
    alt_NetworkErrorHandler(EXPANDED_DIAGNOSIS_CODE,"[TSDR_task] Discovery Socket creation failed");
 8002e24:	01420174 	movhi	r5,2053
 8002e28:	297c9304 	addi	r5,r5,-3508
 8002e2c:	01003fc4 	movi	r4,255
 8002e30:	80021540 	call	8002154 <alt_NetworkErrorHandler>
   * port and incoming address. In this case we're binding to SSS_PORT and to
   * INADDR_ANY address (allowing anyone to connect to us. Bind may fail for 
   * various reasons, but the most common is that some other socket is bound to
   * the port we're requesting. 
   */ 
  addrhost.sin_family = AF_INET;
 8002e34:	00800084 	movi	r2,2
 8002e38:	e0bff60d 	sth	r2,-40(fp)
  addrhost.sin_port = htons(1024);
 8002e3c:	00800104 	movi	r2,4
 8002e40:	e0bff68d 	sth	r2,-38(fp)
  addrhost.sin_addr.s_addr = INADDR_ANY;	//  any interface on our host
 8002e44:	e03ff715 	stw	zero,-36(fp)
  
  if ((bind(fd_disc_recv, (struct sockaddr *)&addrhost, sizeof(addrhost))) < 0)
 8002e48:	e0bff604 	addi	r2,fp,-40
 8002e4c:	01800404 	movi	r6,16
 8002e50:	100b883a 	mov	r5,r2
 8002e54:	e13ffd17 	ldw	r4,-12(fp)
 8002e58:	802f5800 	call	802f580 <t_bind>
 8002e5c:	1000040e 	bge	r2,zero,8002e70 <SSSSimpleSocketServerTask+0xa8>
  {
    alt_NetworkErrorHandler(EXPANDED_DIAGNOSIS_CODE,"[TSDR_task] Discovery Bind failed");
 8002e60:	01420174 	movhi	r5,2053
 8002e64:	297c9f04 	addi	r5,r5,-3460
 8002e68:	01003fc4 	movi	r4,255
 8002e6c:	80021540 	call	8002154 <alt_NetworkErrorHandler>
  }

  int addresult = buildaddChan(fd_disc_recv, 'D', &addrhost, &nilclient);	// add discovery channel to table
 8002e70:	e0fff204 	addi	r3,fp,-56
 8002e74:	e0bff604 	addi	r2,fp,-40
 8002e78:	180f883a 	mov	r7,r3
 8002e7c:	100d883a 	mov	r6,r2
 8002e80:	01401104 	movi	r5,68
 8002e84:	e13ffd17 	ldw	r4,-12(fp)
 8002e88:	800067c0 	call	800067c <buildaddChan>
 8002e8c:	e0bffc15 	stw	r2,-16(fp)
  if (addresult < 0)
 8002e90:	e0bffc17 	ldw	r2,-16(fp)
 8002e94:	1000030e 	bge	r2,zero,8002ea4 <SSSSimpleSocketServerTask+0xdc>
  {
    printf("[FATAL] Could not add Discovery Channel.  We're probably dead.\n");
 8002e98:	01020174 	movhi	r4,2053
 8002e9c:	213ca804 	addi	r4,r4,-3424
 8002ea0:	80036480 	call	8003648 <puts>
     * 
     *   FD_ZERO  - Zero's out the sockets we're interested in
     *   FD_SET   - Adds a socket to those we're interested in
     *   FD_ISSET - Tests whether the chosen socket is set 
     */
    FD_ZERO(&readfds);
 8002ea4:	e03fb115 	stw	zero,-316(fp)

    int activelist[MAXUDPCHAN];							// list of active channels to retrieve
    int listenercount = allListeners(&activelist[0]);	// count of active channels retrieved
 8002ea8:	e0bf9c04 	addi	r2,fp,-400
 8002eac:	1009883a 	mov	r4,r2
 8002eb0:	80007100 	call	8000710 <allListeners>
 8002eb4:	e0bffb15 	stw	r2,-20(fp)
    for(int i=0; i<listenercount; i++)
 8002eb8:	e03fff15 	stw	zero,-4(fp)
 8002ebc:	00000b06 	br	8002eec <SSSSimpleSocketServerTask+0x124>
    	FD_SET(activelist[i], &readfds);	// add all active channels to select
 8002ec0:	e0bfff17 	ldw	r2,-4(fp)
 8002ec4:	100490ba 	slli	r2,r2,2
 8002ec8:	e085883a 	add	r2,fp,r2
 8002ecc:	10bf9c17 	ldw	r2,-400(r2)
 8002ed0:	e0ffb104 	addi	r3,fp,-316
 8002ed4:	180b883a 	mov	r5,r3
 8002ed8:	1009883a 	mov	r4,r2
 8002edc:	80346980 	call	8034698 <ifd_set>
    for(int i=0; i<listenercount; i++)
 8002ee0:	e0bfff17 	ldw	r2,-4(fp)
 8002ee4:	10800044 	addi	r2,r2,1
 8002ee8:	e0bfff15 	stw	r2,-4(fp)
 8002eec:	e0ffff17 	ldw	r3,-4(fp)
 8002ef0:	e0bffb17 	ldw	r2,-20(fp)
 8002ef4:	18bff216 	blt	r3,r2,8002ec0 <SSSSimpleSocketServerTask+0xf8>

    select(MAXUDPCHAN, &readfds, NULL, NULL, NULL);
 8002ef8:	e0bfb104 	addi	r2,fp,-316
 8002efc:	d8000015 	stw	zero,0(sp)
 8002f00:	000f883a 	mov	r7,zero
 8002f04:	000d883a 	mov	r6,zero
 8002f08:	100b883a 	mov	r5,r2
 8002f0c:	01000544 	movi	r4,21
 8002f10:	8027c2c0 	call	8027c2c <bsd_select>

    for(int i=0; i<listenercount; i++)
 8002f14:	e03ffe15 	stw	zero,-8(fp)
 8002f18:	00001b06 	br	8002f88 <SSSSimpleSocketServerTask+0x1c0>
    {
    	if (FD_ISSET(activelist[i], &readfds))		// if we got a packet for the listener
 8002f1c:	e0bffe17 	ldw	r2,-8(fp)
 8002f20:	100490ba 	slli	r2,r2,2
 8002f24:	e085883a 	add	r2,fp,r2
 8002f28:	10bf9c17 	ldw	r2,-400(r2)
 8002f2c:	e0ffb104 	addi	r3,fp,-316
 8002f30:	180b883a 	mov	r5,r3
 8002f34:	1009883a 	mov	r4,r2
 8002f38:	803470c0 	call	803470c <ifd_isset>
 8002f3c:	10000f26 	beq	r2,zero,8002f7c <SSSSimpleSocketServerTask+0x1b4>
    	{
    		int index = findfdChan(activelist[i]);
 8002f40:	e0bffe17 	ldw	r2,-8(fp)
 8002f44:	100490ba 	slli	r2,r2,2
 8002f48:	e085883a 	add	r2,fp,r2
 8002f4c:	10bf9c17 	ldw	r2,-400(r2)
 8002f50:	1009883a 	mov	r4,r2
 8002f54:	800054c0 	call	800054c <findfdChan>
 8002f58:	e0bffa15 	stw	r2,-24(fp)
    		if (index >= 0)
 8002f5c:	e0bffa17 	ldw	r2,-24(fp)
 8002f60:	10000316 	blt	r2,zero,8002f70 <SSSSimpleSocketServerTask+0x1a8>
    			ProcessRxPacket(index);				// process the received packet, say which channel it's on
 8002f64:	e13ffa17 	ldw	r4,-24(fp)
 8002f68:	80007a00 	call	80007a0 <ProcessRxPacket>
 8002f6c:	00000306 	br	8002f7c <SSSSimpleSocketServerTask+0x1b4>
    		else
    			printf("ERROR: Received a Packet but no connection found.\n");
 8002f70:	01020174 	movhi	r4,2053
 8002f74:	213cb804 	addi	r4,r4,-3360
 8002f78:	80036480 	call	8003648 <puts>
    for(int i=0; i<listenercount; i++)
 8002f7c:	e0bffe17 	ldw	r2,-8(fp)
 8002f80:	10800044 	addi	r2,r2,1
 8002f84:	e0bffe15 	stw	r2,-8(fp)
 8002f88:	e0fffe17 	ldw	r3,-8(fp)
 8002f8c:	e0bffb17 	ldw	r2,-20(fp)
 8002f90:	18bfe216 	blt	r3,r2,8002f1c <SSSSimpleSocketServerTask+0x154>
  {
 8002f94:	003fc306 	br	8002ea4 <SSSSimpleSocketServerTask+0xdc>

08002f98 <_fprintf_r>:
 8002f98:	defffe04 	addi	sp,sp,-8
 8002f9c:	2809883a 	mov	r4,r5
 8002fa0:	300b883a 	mov	r5,r6
 8002fa4:	dfc00015 	stw	ra,0(sp)
 8002fa8:	d9c00115 	stw	r7,4(sp)
 8002fac:	d9800104 	addi	r6,sp,4
 8002fb0:	80062300 	call	8006230 <__vfprintf_internal>
 8002fb4:	dfc00017 	ldw	ra,0(sp)
 8002fb8:	dec00204 	addi	sp,sp,8
 8002fbc:	f800283a 	ret

08002fc0 <fprintf>:
 8002fc0:	defffd04 	addi	sp,sp,-12
 8002fc4:	dfc00015 	stw	ra,0(sp)
 8002fc8:	d9800115 	stw	r6,4(sp)
 8002fcc:	d9c00215 	stw	r7,8(sp)
 8002fd0:	d9800104 	addi	r6,sp,4
 8002fd4:	80062300 	call	8006230 <__vfprintf_internal>
 8002fd8:	dfc00017 	ldw	ra,0(sp)
 8002fdc:	dec00304 	addi	sp,sp,12
 8002fe0:	f800283a 	ret

08002fe4 <_fwrite_r>:
 8002fe4:	defff604 	addi	sp,sp,-40
 8002fe8:	dcc00815 	stw	r19,32(sp)
 8002fec:	39a7383a 	mul	r19,r7,r6
 8002ff0:	00800044 	movi	r2,1
 8002ff4:	dc800715 	stw	r18,28(sp)
 8002ff8:	dc400615 	stw	r17,24(sp)
 8002ffc:	dc000515 	stw	r16,20(sp)
 8003000:	d9400015 	stw	r5,0(sp)
 8003004:	dfc00915 	stw	ra,36(sp)
 8003008:	dcc00115 	stw	r19,4(sp)
 800300c:	dcc00415 	stw	r19,16(sp)
 8003010:	dec00215 	stw	sp,8(sp)
 8003014:	d8800315 	stw	r2,12(sp)
 8003018:	d9400a17 	ldw	r5,40(sp)
 800301c:	3025883a 	mov	r18,r6
 8003020:	3821883a 	mov	r16,r7
 8003024:	2023883a 	mov	r17,r4
 8003028:	20000226 	beq	r4,zero,8003034 <_fwrite_r+0x50>
 800302c:	20800e17 	ldw	r2,56(r4)
 8003030:	10001826 	beq	r2,zero,8003094 <_fwrite_r+0xb0>
 8003034:	2880030b 	ldhu	r2,12(r5)
 8003038:	10c8000c 	andi	r3,r2,8192
 800303c:	1800061e 	bne	r3,zero,8003058 <_fwrite_r+0x74>
 8003040:	28c01917 	ldw	r3,100(r5)
 8003044:	0137ffc4 	movi	r4,-8193
 8003048:	10880014 	ori	r2,r2,8192
 800304c:	1906703a 	and	r3,r3,r4
 8003050:	2880030d 	sth	r2,12(r5)
 8003054:	28c01915 	stw	r3,100(r5)
 8003058:	d9800204 	addi	r6,sp,8
 800305c:	8809883a 	mov	r4,r17
 8003060:	80088880 	call	8008888 <__sfvwrite_r>
 8003064:	10000e26 	beq	r2,zero,80030a0 <_fwrite_r+0xbc>
 8003068:	d9000417 	ldw	r4,16(sp)
 800306c:	900b883a 	mov	r5,r18
 8003070:	9909c83a 	sub	r4,r19,r4
 8003074:	800e5840 	call	800e584 <__udivsi3>
 8003078:	dfc00917 	ldw	ra,36(sp)
 800307c:	dcc00817 	ldw	r19,32(sp)
 8003080:	dc800717 	ldw	r18,28(sp)
 8003084:	dc400617 	ldw	r17,24(sp)
 8003088:	dc000517 	ldw	r16,20(sp)
 800308c:	dec00a04 	addi	sp,sp,40
 8003090:	f800283a 	ret
 8003094:	80084280 	call	8008428 <__sinit>
 8003098:	d9400a17 	ldw	r5,40(sp)
 800309c:	003fe506 	br	8003034 <_fwrite_r+0x50>
 80030a0:	8005883a 	mov	r2,r16
 80030a4:	003ff406 	br	8003078 <_fwrite_r+0x94>

080030a8 <fwrite>:
 80030a8:	00c20174 	movhi	r3,2053
 80030ac:	2005883a 	mov	r2,r4
 80030b0:	1919b417 	ldw	r4,26320(r3)
 80030b4:	defffe04 	addi	sp,sp,-8
 80030b8:	d9c00015 	stw	r7,0(sp)
 80030bc:	300f883a 	mov	r7,r6
 80030c0:	280d883a 	mov	r6,r5
 80030c4:	100b883a 	mov	r5,r2
 80030c8:	dfc00115 	stw	ra,4(sp)
 80030cc:	8002fe40 	call	8002fe4 <_fwrite_r>
 80030d0:	dfc00117 	ldw	ra,4(sp)
 80030d4:	dec00204 	addi	sp,sp,8
 80030d8:	f800283a 	ret

080030dc <_getchar_r>:
 80030dc:	21400117 	ldw	r5,4(r4)
 80030e0:	8008e841 	jmpi	8008e84 <_getc_r>

080030e4 <getchar>:
 80030e4:	00820174 	movhi	r2,2053
 80030e8:	1119b417 	ldw	r4,26320(r2)
 80030ec:	21400117 	ldw	r5,4(r4)
 80030f0:	8008e841 	jmpi	8008e84 <_getc_r>

080030f4 <memcmp>:
 80030f4:	30800130 	cmpltui	r2,r6,4
 80030f8:	10000b1e 	bne	r2,zero,8003128 <memcmp+0x34>
 80030fc:	2144b03a 	or	r2,r4,r5
 8003100:	108000cc 	andi	r2,r2,3
 8003104:	1000171e 	bne	r2,zero,8003164 <memcmp+0x70>
 8003108:	20c00017 	ldw	r3,0(r4)
 800310c:	28800017 	ldw	r2,0(r5)
 8003110:	1880141e 	bne	r3,r2,8003164 <memcmp+0x70>
 8003114:	31bfff04 	addi	r6,r6,-4
 8003118:	30800128 	cmpgeui	r2,r6,4
 800311c:	21000104 	addi	r4,r4,4
 8003120:	29400104 	addi	r5,r5,4
 8003124:	103ff81e 	bne	r2,zero,8003108 <memcmp+0x14>
 8003128:	30bfffc4 	addi	r2,r6,-1
 800312c:	30000b26 	beq	r6,zero,800315c <memcmp+0x68>
 8003130:	11800044 	addi	r6,r2,1
 8003134:	298d883a 	add	r6,r5,r6
 8003138:	00000106 	br	8003140 <memcmp+0x4c>
 800313c:	29800726 	beq	r5,r6,800315c <memcmp+0x68>
 8003140:	20800003 	ldbu	r2,0(r4)
 8003144:	28c00003 	ldbu	r3,0(r5)
 8003148:	21000044 	addi	r4,r4,1
 800314c:	29400044 	addi	r5,r5,1
 8003150:	10fffa26 	beq	r2,r3,800313c <memcmp+0x48>
 8003154:	10c5c83a 	sub	r2,r2,r3
 8003158:	f800283a 	ret
 800315c:	0005883a 	mov	r2,zero
 8003160:	f800283a 	ret
 8003164:	30bfffc4 	addi	r2,r6,-1
 8003168:	003ff106 	br	8003130 <memcmp+0x3c>

0800316c <memcpy>:
 800316c:	30c00430 	cmpltui	r3,r6,16
 8003170:	2005883a 	mov	r2,r4
 8003174:	18002d1e 	bne	r3,zero,800322c <memcpy+0xc0>
 8003178:	2906b03a 	or	r3,r5,r4
 800317c:	18c000cc 	andi	r3,r3,3
 8003180:	1800351e 	bne	r3,zero,8003258 <memcpy+0xec>
 8003184:	32fffc04 	addi	r11,r6,-16
 8003188:	5816d13a 	srli	r11,r11,4
 800318c:	280f883a 	mov	r7,r5
 8003190:	2007883a 	mov	r3,r4
 8003194:	5ac00044 	addi	r11,r11,1
 8003198:	5816913a 	slli	r11,r11,4
 800319c:	22d5883a 	add	r10,r4,r11
 80031a0:	39000117 	ldw	r4,4(r7)
 80031a4:	3a400017 	ldw	r9,0(r7)
 80031a8:	3a000217 	ldw	r8,8(r7)
 80031ac:	19000115 	stw	r4,4(r3)
 80031b0:	39000317 	ldw	r4,12(r7)
 80031b4:	1a400015 	stw	r9,0(r3)
 80031b8:	1a000215 	stw	r8,8(r3)
 80031bc:	19000315 	stw	r4,12(r3)
 80031c0:	18c00404 	addi	r3,r3,16
 80031c4:	39c00404 	addi	r7,r7,16
 80031c8:	50fff51e 	bne	r10,r3,80031a0 <memcpy+0x34>
 80031cc:	3100030c 	andi	r4,r6,12
 80031d0:	2acb883a 	add	r5,r5,r11
 80031d4:	320003cc 	andi	r8,r6,15
 80031d8:	20002226 	beq	r4,zero,8003264 <memcpy+0xf8>
 80031dc:	280f883a 	mov	r7,r5
 80031e0:	1813883a 	mov	r9,r3
 80031e4:	39c00104 	addi	r7,r7,4
 80031e8:	3abfff17 	ldw	r10,-4(r7)
 80031ec:	41c9c83a 	sub	r4,r8,r7
 80031f0:	2909883a 	add	r4,r5,r4
 80031f4:	4a800015 	stw	r10,0(r9)
 80031f8:	21000128 	cmpgeui	r4,r4,4
 80031fc:	4a400104 	addi	r9,r9,4
 8003200:	203ff81e 	bne	r4,zero,80031e4 <memcpy+0x78>
 8003204:	413fff04 	addi	r4,r8,-4
 8003208:	2008d0ba 	srli	r4,r4,2
 800320c:	318000cc 	andi	r6,r6,3
 8003210:	31ffffc4 	addi	r7,r6,-1
 8003214:	21000044 	addi	r4,r4,1
 8003218:	200890ba 	slli	r4,r4,2
 800321c:	1907883a 	add	r3,r3,r4
 8003220:	290b883a 	add	r5,r5,r4
 8003224:	3000041e 	bne	r6,zero,8003238 <memcpy+0xcc>
 8003228:	f800283a 	ret
 800322c:	2007883a 	mov	r3,r4
 8003230:	31ffffc4 	addi	r7,r6,-1
 8003234:	303ffc26 	beq	r6,zero,8003228 <memcpy+0xbc>
 8003238:	39c00044 	addi	r7,r7,1
 800323c:	19cf883a 	add	r7,r3,r7
 8003240:	29800003 	ldbu	r6,0(r5)
 8003244:	18c00044 	addi	r3,r3,1
 8003248:	29400044 	addi	r5,r5,1
 800324c:	19bfffc5 	stb	r6,-1(r3)
 8003250:	38fffb1e 	bne	r7,r3,8003240 <memcpy+0xd4>
 8003254:	f800283a 	ret
 8003258:	31ffffc4 	addi	r7,r6,-1
 800325c:	2007883a 	mov	r3,r4
 8003260:	003ff506 	br	8003238 <memcpy+0xcc>
 8003264:	400d883a 	mov	r6,r8
 8003268:	003ff106 	br	8003230 <memcpy+0xc4>

0800326c <memset>:
 800326c:	20c000cc 	andi	r3,r4,3
 8003270:	2005883a 	mov	r2,r4
 8003274:	18003626 	beq	r3,zero,8003350 <memset+0xe4>
 8003278:	31ffffc4 	addi	r7,r6,-1
 800327c:	30003326 	beq	r6,zero,800334c <memset+0xe0>
 8003280:	2811883a 	mov	r8,r5
 8003284:	2007883a 	mov	r3,r4
 8003288:	00000306 	br	8003298 <memset+0x2c>
 800328c:	39ffffc4 	addi	r7,r7,-1
 8003290:	39bfffe0 	cmpeqi	r6,r7,-1
 8003294:	30002d1e 	bne	r6,zero,800334c <memset+0xe0>
 8003298:	18c00044 	addi	r3,r3,1
 800329c:	198000cc 	andi	r6,r3,3
 80032a0:	1a3fffc5 	stb	r8,-1(r3)
 80032a4:	303ff91e 	bne	r6,zero,800328c <memset+0x20>
 80032a8:	39000130 	cmpltui	r4,r7,4
 80032ac:	2000221e 	bne	r4,zero,8003338 <memset+0xcc>
 80032b0:	29003fcc 	andi	r4,r5,255
 80032b4:	200c923a 	slli	r6,r4,8
 80032b8:	3a000430 	cmpltui	r8,r7,16
 80032bc:	3108b03a 	or	r4,r6,r4
 80032c0:	200c943a 	slli	r6,r4,16
 80032c4:	310cb03a 	or	r6,r6,r4
 80032c8:	40000e1e 	bne	r8,zero,8003304 <memset+0x98>
 80032cc:	393ffc04 	addi	r4,r7,-16
 80032d0:	2008d13a 	srli	r4,r4,4
 80032d4:	21000044 	addi	r4,r4,1
 80032d8:	2008913a 	slli	r4,r4,4
 80032dc:	1909883a 	add	r4,r3,r4
 80032e0:	19800015 	stw	r6,0(r3)
 80032e4:	19800115 	stw	r6,4(r3)
 80032e8:	19800215 	stw	r6,8(r3)
 80032ec:	19800315 	stw	r6,12(r3)
 80032f0:	18c00404 	addi	r3,r3,16
 80032f4:	20fffa1e 	bne	r4,r3,80032e0 <memset+0x74>
 80032f8:	3900030c 	andi	r4,r7,12
 80032fc:	39c003cc 	andi	r7,r7,15
 8003300:	20000d26 	beq	r4,zero,8003338 <memset+0xcc>
 8003304:	1811883a 	mov	r8,r3
 8003308:	42000104 	addi	r8,r8,4
 800330c:	3a09c83a 	sub	r4,r7,r8
 8003310:	1909883a 	add	r4,r3,r4
 8003314:	21000128 	cmpgeui	r4,r4,4
 8003318:	41bfff15 	stw	r6,-4(r8)
 800331c:	203ffa1e 	bne	r4,zero,8003308 <memset+0x9c>
 8003320:	393fff04 	addi	r4,r7,-4
 8003324:	2008d0ba 	srli	r4,r4,2
 8003328:	39c000cc 	andi	r7,r7,3
 800332c:	21000044 	addi	r4,r4,1
 8003330:	200890ba 	slli	r4,r4,2
 8003334:	1907883a 	add	r3,r3,r4
 8003338:	38000426 	beq	r7,zero,800334c <memset+0xe0>
 800333c:	19cf883a 	add	r7,r3,r7
 8003340:	18c00044 	addi	r3,r3,1
 8003344:	197fffc5 	stb	r5,-1(r3)
 8003348:	38fffd1e 	bne	r7,r3,8003340 <memset+0xd4>
 800334c:	f800283a 	ret
 8003350:	2007883a 	mov	r3,r4
 8003354:	300f883a 	mov	r7,r6
 8003358:	003fd306 	br	80032a8 <memset+0x3c>

0800335c <_perror_r>:
 800335c:	defffa04 	addi	sp,sp,-24
 8003360:	dcc00415 	stw	r19,16(sp)
 8003364:	dc400215 	stw	r17,8(sp)
 8003368:	dc000115 	stw	r16,4(sp)
 800336c:	dfc00515 	stw	ra,20(sp)
 8003370:	dc800315 	stw	r18,12(sp)
 8003374:	24c00317 	ldw	r19,12(r4)
 8003378:	2023883a 	mov	r17,r4
 800337c:	2821883a 	mov	r16,r5
 8003380:	20000226 	beq	r4,zero,800338c <_perror_r+0x30>
 8003384:	20800e17 	ldw	r2,56(r4)
 8003388:	10005426 	beq	r2,zero,80034dc <_perror_r+0x180>
 800338c:	980b883a 	mov	r5,r19
 8003390:	8809883a 	mov	r4,r17
 8003394:	80080400 	call	8008040 <_fflush_r>
 8003398:	80000226 	beq	r16,zero,80033a4 <_perror_r+0x48>
 800339c:	80800007 	ldb	r2,0(r16)
 80033a0:	10002f1e 	bne	r2,zero,8003460 <_perror_r+0x104>
 80033a4:	89400017 	ldw	r5,0(r17)
 80033a8:	d80f883a 	mov	r7,sp
 80033ac:	01800044 	movi	r6,1
 80033b0:	8809883a 	mov	r4,r17
 80033b4:	80036e40 	call	80036e4 <_strerror_r>
 80033b8:	1025883a 	mov	r18,r2
 80033bc:	10001026 	beq	r2,zero,8003400 <_perror_r+0xa4>
 80033c0:	1009883a 	mov	r4,r2
 80033c4:	8003d700 	call	8003d70 <strlen>
 80033c8:	1021883a 	mov	r16,r2
 80033cc:	1000031e 	bne	r2,zero,80033dc <_perror_r+0x80>
 80033d0:	00000b06 	br	8003400 <_perror_r+0xa4>
 80033d4:	90a5883a 	add	r18,r18,r2
 80033d8:	80000926 	beq	r16,zero,8003400 <_perror_r+0xa4>
 80033dc:	9809883a 	mov	r4,r19
 80033e0:	80080c80 	call	80080c8 <fileno>
 80033e4:	800f883a 	mov	r7,r16
 80033e8:	900d883a 	mov	r6,r18
 80033ec:	100b883a 	mov	r5,r2
 80033f0:	8809883a 	mov	r4,r17
 80033f4:	800630c0 	call	800630c <_write_r>
 80033f8:	80a1c83a 	sub	r16,r16,r2
 80033fc:	103ff50e 	bge	r2,zero,80033d4 <_perror_r+0x78>
 8003400:	04820174 	movhi	r18,2053
 8003404:	04000044 	movi	r16,1
 8003408:	94bd7104 	addi	r18,r18,-2620
 800340c:	9809883a 	mov	r4,r19
 8003410:	80080c80 	call	80080c8 <fileno>
 8003414:	800f883a 	mov	r7,r16
 8003418:	900d883a 	mov	r6,r18
 800341c:	100b883a 	mov	r5,r2
 8003420:	8809883a 	mov	r4,r17
 8003424:	800630c0 	call	800630c <_write_r>
 8003428:	80a1c83a 	sub	r16,r16,r2
 800342c:	10000216 	blt	r2,zero,8003438 <_perror_r+0xdc>
 8003430:	90a5883a 	add	r18,r18,r2
 8003434:	803ff51e 	bne	r16,zero,800340c <_perror_r+0xb0>
 8003438:	9880030b 	ldhu	r2,12(r19)
 800343c:	10bbffcc 	andi	r2,r2,61439
 8003440:	9880030d 	sth	r2,12(r19)
 8003444:	dfc00517 	ldw	ra,20(sp)
 8003448:	dcc00417 	ldw	r19,16(sp)
 800344c:	dc800317 	ldw	r18,12(sp)
 8003450:	dc400217 	ldw	r17,8(sp)
 8003454:	dc000117 	ldw	r16,4(sp)
 8003458:	dec00604 	addi	sp,sp,24
 800345c:	f800283a 	ret
 8003460:	8009883a 	mov	r4,r16
 8003464:	8003d700 	call	8003d70 <strlen>
 8003468:	1025883a 	mov	r18,r2
 800346c:	1000031e 	bne	r2,zero,800347c <_perror_r+0x120>
 8003470:	00000b06 	br	80034a0 <_perror_r+0x144>
 8003474:	80a1883a 	add	r16,r16,r2
 8003478:	90000926 	beq	r18,zero,80034a0 <_perror_r+0x144>
 800347c:	9809883a 	mov	r4,r19
 8003480:	80080c80 	call	80080c8 <fileno>
 8003484:	900f883a 	mov	r7,r18
 8003488:	800d883a 	mov	r6,r16
 800348c:	100b883a 	mov	r5,r2
 8003490:	8809883a 	mov	r4,r17
 8003494:	800630c0 	call	800630c <_write_r>
 8003498:	90a5c83a 	sub	r18,r18,r2
 800349c:	103ff50e 	bge	r2,zero,8003474 <_perror_r+0x118>
